     1                                  [bits 16]
     2                                  [org 0x8000]
     3                                  
     4                                  %include "boot/stage2/01_entry_io.asm"
     1                              <1> %define COM1_PORT        0x3f8
     2                              <1> %define INPUT_MAX        4095
     3                              <1> %define SERIAL_LINE_MAX  511
     4                              <1> %define PS2_DATA         0x60
     5                              <1> %define PS2_STATUS       0x64
     6                              <1> %define EDITOR_CAPACITY  10240
     7                              <1> %define TASK_SLOT_COUNT  4
     8                              <1> %define TASK_NAME_SIZE   16
     9                              <1> %define TASK_GOAL_SIZE   160
    10                              <1> %define CHAT_SESSION_SIZE 16
    11                              <1> %define HOST_ACTION_SIZE 24
    12                              <1> %define PATCH_MAX_BYTES  0x0200
    13                              <1> %define PEEK_MAX_BYTES   0x0C80
    14                              <1> %define STREAM_MAX_BYTES 0x01F0
    15                              <1> %define NAV_NEEDLE_MAX   128
    16                              <1> %define NAV_TEXT_WINDOW  0x0040
    17                              <1> %define NAV_HEX_WINDOW   0x0010
    18                              <1> %define NAV_SOURCE_NONE  0
    19                              <1> %define NAV_SOURCE_EDITOR 1
    20                              <1> %define NAV_SOURCE_MEMORY 2
    21                              <1> %define NAV_RENDER_NONE  0
    22                              <1> %define NAV_RENDER_TEXT  1
    23                              <1> %define NAV_RENDER_HEX   2
    24                              <1> %define PM32_CODE_SEL    0x08
    25                              <1> %define PM32_DATA_SEL    0x10
    26                              <1> %define PM16_CODE_SEL    0x18
    27                              <1> %define PM16_DATA_SEL    0x20
    28                              <1> %define PM32_STACK_TOP   0x7000
    29                              <1> %define LOW_BIOS_RESERVED_END 0x00001000
    30                              <1> %define LOW_MEMORY_LIMIT 0x00100000
    31                              <1> %define SAFE_RANGE_MAX   8
    32                              <1> %define CHAT_LOOP_MAX_STEPS 8
    33                              <1> %define RAMLIST_NODE_COUNT 16
    34                              <1> %define KERNEL_RUNTIME_UNKNOWN 0
    35                              <1> %define KERNEL_RUNTIME_LATENT  1
    36                              <1> %define KERNEL_RUNTIME_BUSY    2
    37                              <1> 
    38                              <1> start:
    39 00000000 FA                  <1>     cli
    40 00000001 31C0                <1>     xor ax, ax
    41 00000003 8ED8                <1>     mov ds, ax
    42 00000005 8EC0                <1>     mov es, ax
    43 00000007 8ED0                <1>     mov ss, ax
    44 00000009 BC007A              <1>     mov sp, 0x7a00
    45 0000000C FB                  <1>     sti
    46                              <1> 
    47 0000000D E88102              <1>     call serial_init
    48 00000010 E89B01              <1>     call set_text_mode
    49                              <1> 
    50 00000013 BE[B120]            <1>     mov si, msg_banner
    51 00000016 E84F02              <1>     call print_string
    52 00000019 BE[D120]            <1>     mov si, msg_hint
    53 0000001C E84902              <1>     call print_string
    54 0000001F E86405              <1>     call announce_generation
    55                              <1> 
    56                              <1> main_loop:
    57 00000022 E8B302              <1>     call kernel_runtime_set_latent
    58 00000025 E8C800              <1>     call show_prompt
    59 00000028 BF[223B]            <1>     mov di, input_buffer
    60 0000002B B9FF0F              <1>     mov cx, INPUT_MAX
    61 0000002E E8C600              <1>     call read_line
    62 00000031 803E[223B]00        <1>     cmp byte [input_buffer], 0
    63 00000036 74EA                <1>     je main_loop
    64 00000038 E8A102              <1>     call kernel_runtime_set_busy
    65 0000003B E80F00              <1>     call dispatch_command
    66 0000003E 803E[A44F]01        <1>     cmp byte [monitor_auto_clear], 1
    67 00000043 7503                <1>     jne .skip_clear
    68 00000045 E89000              <1>     call clear_console
    69                              <1> .skip_clear:
    70 00000048 E82E00              <1>     call do_help
    71 0000004B EBD5                <1>     jmp main_loop
    72                              <1> 
    73                              <1> dispatch_command:
    74 0000004D 53                  <1>     push bx
    75 0000004E BB[4D20]            <1>     mov bx, command_table
    76                              <1> 
    77                              <1> .next:
    78 00000051 8B3F                <1>     mov di, [bx]
    79 00000053 85FF                <1>     test di, di
    80 00000055 7418                <1>     jz .unknown
    81 00000057 BE[223B]            <1>     mov si, input_buffer
    82 0000005A E87D03              <1>     call streq
    83 0000005D 3C01                <1>     cmp al, 1
    84 0000005F 7405                <1>     je .run
    85 00000061 83C304              <1>     add bx, 4
    86 00000064 EBEB                <1>     jmp .next
    87                              <1> 
    88                              <1> .run:
    89 00000066 8B5702              <1>     mov dx, [bx + 2]
    90 00000069 5B                  <1>     pop bx
    91 0000006A FFD2                <1>     call dx
    92 0000006C B001                <1>     mov al, 1
    93 0000006E C3                  <1>     ret
    94                              <1> 
    95                              <1> .unknown:
    96 0000006F 5B                  <1>     pop bx
    97 00000070 BE[DD26]            <1>     mov si, msg_unknown
    98 00000073 E8F201              <1>     call print_string
    99 00000076 30C0                <1>     xor al, al
   100 00000078 C3                  <1>     ret
   101                              <1> 
   102                              <1> do_help:
   103 00000079 BE[9921]            <1>     mov si, msg_help
   104 0000007C E8E901              <1>     call print_string
   105 0000007F C3                  <1>     ret
   106                              <1> 
   107                              <1> do_hardware_list:
   108 00000080 E8AB05              <1>     call hardware_list
   109 00000083 C3                  <1>     ret
   110                              <1> 
   111                              <1> do_memory_map:
   112 00000084 E89007              <1>     call memory_map
   113 00000087 C3                  <1>     ret
   114                              <1> 
   115                              <1> do_calc:
   116 00000088 E8C609              <1>     call calculator_program
   117 0000008B C3                  <1>     ret
   118                              <1> 
   119                              <1> do_chat:
   120 0000008C E8D90A              <1>     call chat_program
   121 0000008F C3                  <1>     ret
   122                              <1> 
   123                              <1> do_curl:
   124 00000090 E83A0C              <1>     call curl_program
   125 00000093 C3                  <1>     ret
   126                              <1> 
   127                              <1> do_hostreq:
   128 00000094 E8770C              <1>     call hostreq_program
   129 00000097 C3                  <1>     ret
   130                              <1> 
   131                              <1> do_task_spawn:
   132 00000098 E8BB0D              <1>     call task_spawn_program
   133 0000009B C3                  <1>     ret
   134                              <1> 
   135                              <1> do_task_list:
   136 0000009C E8280E              <1>     call task_list_program
   137 0000009F C3                  <1>     ret
   138                              <1> 
   139                              <1> do_task_retire:
   140 000000A0 E8850E              <1>     call task_retire_program
   141 000000A3 C3                  <1>     ret
   142                              <1> 
   143                              <1> do_task_step:
   144 000000A4 E8B90E              <1>     call task_step_program
   145 000000A7 C3                  <1>     ret
   146                              <1> 
   147                              <1> do_ramlist:
   148 000000A8 E8770F              <1>     call ramlist_program
   149 000000AB C3                  <1>     ret
   150                              <1> 
   151                              <1> do_edit:
   152 000000AC E83419              <1>     call editor_program
   153 000000AF C3                  <1>     ret
   154                              <1> 
   155                              <1> do_grep:
   156 000000B0 E8C519              <1>     call grep_program
   157 000000B3 C3                  <1>     ret
   158                              <1> 
   159                              <1> do_peek:
   160 000000B4 E87414              <1>     call peek_program
   161 000000B7 C3                  <1>     ret
   162                              <1> 
   163                              <1> do_search:
   164 000000B8 E8DB19              <1>     call search_program
   165 000000BB C3                  <1>     ret
   166                              <1> 
   167                              <1> do_next:
   168 000000BC E8DE19              <1>     call next_program
   169 000000BF C3                  <1>     ret
   170                              <1> 
   171                              <1> do_prev:
   172 000000C0 E8E119              <1>     call prev_program
   173 000000C3 C3                  <1>     ret
   174                              <1> 
   175                              <1> do_forward:
   176 000000C4 E8E419              <1>     call forward_program
   177 000000C7 C3                  <1>     ret
   178                              <1> 
   179                              <1> do_back:
   180 000000C8 E8E719              <1>     call back_program
   181 000000CB C3                  <1>     ret
   182                              <1> 
   183                              <1> do_view:
   184 000000CC E8EA19              <1>     call view_program
   185 000000CF C3                  <1>     ret
   186                              <1> 
   187                              <1> do_pm32:
   188 000000D0 E81E1E              <1>     call protected_mode_program
   189 000000D3 C3                  <1>     ret
   190                              <1> 
   191                              <1> do_screen:
   192 000000D4 E82E10              <1>     call screen_program
   193 000000D7 C3                  <1>     ret
   194                              <1> 
   195                              <1> clear_console:
   196 000000D8 E8D300              <1>     call set_text_mode
   197 000000DB C3                  <1>     ret
   198                              <1> 
   199                              <1> do_halt:
   200 000000DC BE[EF26]            <1>     mov si, msg_halt
   201 000000DF E88601              <1>     call print_string
   202                              <1> .halt_loop:
   203 000000E2 FA                  <1>     cli
   204 000000E3 F4                  <1>     hlt
   205 000000E4 EBFC                <1>     jmp .halt_loop
   206                              <1> 
   207                              <1> do_reboot:
   208 000000E6 BE[FD26]            <1>     mov si, msg_reboot
   209 000000E9 E87C01              <1>     call print_string
   210 000000EC CD19                <1>     int 0x19
   211 000000EE EBFE                <1>     jmp $
   212                              <1> 
   213                              <1> show_prompt:
   214 000000F0 BE[6236]            <1>     mov si, prompt
   215 000000F3 E87201              <1>     call print_string
   216 000000F6 C3                  <1>     ret
   217                              <1> 
   218                              <1> read_line:
   219 000000F7 53                  <1>     push bx
   220 000000F8 31DB                <1>     xor bx, bx
   221                              <1> 
   222                              <1> .next_char:
   223 000000FA E84500              <1>     call read_input_char
   224 000000FD 3C0D                <1>     cmp al, 0x0d
   225 000000FF 7436                <1>     je .done
   226 00000101 3C08                <1>     cmp al, 0x08
   227 00000103 7418                <1>     je .backspace
   228 00000105 3C7F                <1>     cmp al, 0x7f
   229 00000107 7414                <1>     je .backspace
   230 00000109 3C20                <1>     cmp al, 32
   231 0000010B 72ED                <1>     jb .next_char
   232 0000010D 39CB                <1>     cmp bx, cx
   233 0000010F 73E9                <1>     jae .next_char
   234 00000111 8805                <1>     mov [di], al
   235 00000113 47                  <1>     inc di
   236 00000114 43                  <1>     inc bx
   237 00000115 C60500              <1>     mov byte [di], 0
   238 00000118 E85801              <1>     call print_char
   239 0000011B EBDD                <1>     jmp .next_char
   240                              <1> 
   241                              <1> .backspace:
   242 0000011D 85DB                <1>     test bx, bx
   243 0000011F 74D9                <1>     jz .next_char
   244 00000121 4F                  <1>     dec di
   245 00000122 4B                  <1>     dec bx
   246 00000123 C60500              <1>     mov byte [di], 0
   247 00000126 B008                <1>     mov al, 0x08
   248 00000128 E84801              <1>     call print_char
   249 0000012B B020                <1>     mov al, ' '
   250 0000012D E84301              <1>     call print_char
   251 00000130 B008                <1>     mov al, 0x08
   252 00000132 E83E01              <1>     call print_char
   253 00000135 EBC3                <1>     jmp .next_char
   254                              <1> 
   255                              <1> .done:
   256 00000137 C60500              <1>     mov byte [di], 0
   257 0000013A BE[1637]            <1>     mov si, newline
   258 0000013D E82801              <1>     call print_string
   259 00000140 5B                  <1>     pop bx
   260 00000141 C3                  <1>     ret
   261                              <1> 
   262                              <1> read_input_char:
   263                              <1> .poll:
   264 00000142 E80500              <1>     call poll_input_char
   265 00000145 84C0                <1>     test al, al
   266 00000147 74F9                <1>     jz .poll
   267 00000149 C3                  <1>     ret
   268                              <1> 
   269                              <1> poll_input_char:
   270 0000014A 53                  <1>     push bx
   271 0000014B 51                  <1>     push cx
   272 0000014C 52                  <1>     push dx
   273 0000014D 56                  <1>     push si
   274 0000014E 57                  <1>     push di
   275 0000014F 1E                  <1>     push ds
   276 00000150 06                  <1>     push es
   277                              <1> 
   278 00000151 B401                <1>     mov ah, 0x01
   279 00000153 CD16                <1>     int 0x16
   280 00000155 7516                <1>     jnz .keyboard_ready
   281                              <1> 
   282 00000157 BAFD03              <1>     mov dx, COM1_PORT + 5
   283 0000015A EC                  <1>     in al, dx
   284 0000015B A801                <1>     test al, 0x01
   285 0000015D 7419                <1>     jz .none
   286                              <1> 
   287 0000015F BAF803              <1>     mov dx, COM1_PORT
   288 00000162 EC                  <1>     in al, dx
   289 00000163 3C0A                <1>     cmp al, 0x0a
   290 00000165 7415                <1>     je .return_enter
   291 00000167 3C0D                <1>     cmp al, 0x0d
   292 00000169 7411                <1>     je .return_enter
   293 0000016B EB11                <1>     jmp .done
   294                              <1> 
   295                              <1> .keyboard_ready:
   296 0000016D 30E4                <1>     xor ah, ah
   297 0000016F CD16                <1>     int 0x16
   298 00000171 E81200              <1>     call keyboard_translate_key
   299 00000174 84C0                <1>     test al, al
   300 00000176 7506                <1>     jnz .done
   301                              <1> 
   302                              <1> .none:
   303 00000178 30C0                <1>     xor al, al
   304 0000017A EB02                <1>     jmp .done
   305                              <1> 
   306                              <1> .return_enter:
   307 0000017C B00D                <1>     mov al, 0x0d
   308                              <1> 
   309                              <1> .done:
   310 0000017E 07                  <1>     pop es
   311 0000017F 1F                  <1>     pop ds
   312 00000180 5F                  <1>     pop di
   313 00000181 5E                  <1>     pop si
   314 00000182 5A                  <1>     pop dx
   315 00000183 59                  <1>     pop cx
   316 00000184 5B                  <1>     pop bx
   317 00000185 C3                  <1>     ret
   318                              <1> 
   319                              <1> keyboard_translate_key:
   320 00000186 53                  <1>     push bx
   321 00000187 52                  <1>     push dx
   322                              <1> 
   323 00000188 88C2                <1>     mov dl, al
   324 0000018A 30FF                <1>     xor bh, bh
   325 0000018C 88E3                <1>     mov bl, ah
   326 0000018E 80FB80              <1>     cmp bl, 0x80
   327 00000191 7316                <1>     jae .fallback
   328                              <1> 
   329 00000193 B402                <1>     mov ah, 0x02
   330 00000195 CD16                <1>     int 0x16
   331 00000197 A803                <1>     test al, 0x03
   332 00000199 7406                <1>     jz .unshifted
   333 0000019B 8A87[DB7C]          <1>     mov al, [keymap_shifted + bx]
   334 0000019F EB04                <1>     jmp .mapped
   335                              <1> 
   336                              <1> .unshifted:
   337 000001A1 8A87[5B7C]          <1>     mov al, [keymap_unshifted + bx]
   338                              <1> 
   339                              <1> .mapped:
   340 000001A5 84C0                <1>     test al, al
   341 000001A7 7502                <1>     jnz .done
   342                              <1> 
   343                              <1> .fallback:
   344 000001A9 88D0                <1>     mov al, dl
   345                              <1> 
   346                              <1> .done:
   347 000001AB 5A                  <1>     pop dx
   348 000001AC 5B                  <1>     pop bx
   349 000001AD C3                  <1>     ret
   350                              <1> 
   351                              <1> set_text_mode:
   352 000001AE 53                  <1>     push bx
   353 000001AF 51                  <1>     push cx
   354 000001B0 52                  <1>     push dx
   355 000001B1 56                  <1>     push si
   356 000001B2 57                  <1>     push di
   357 000001B3 55                  <1>     push bp
   358 000001B4 1E                  <1>     push ds
   359 000001B5 06                  <1>     push es
   360 000001B6 B40F                <1>     mov ah, 0x0f
   361 000001B8 CD10                <1>     int 0x10
   362 000001BA 3C03                <1>     cmp al, 0x03
   363 000001BC 7509                <1>     jne .reset
   364 000001BE 803E[A34F]01        <1>     cmp byte [text_console_ready], 1
   365 000001C3 7502                <1>     jne .reset
   366 000001C5 EB11                <1>     jmp .refresh
   367                              <1> 
   368                              <1> .reset:
   369 000001C7 B80300              <1>     mov ax, 0x0003
   370 000001CA CD10                <1>     int 0x10
   371 000001CC B81211              <1>     mov ax, 0x1112
   372 000001CF 31DB                <1>     xor bx, bx
   373 000001D1 CD10                <1>     int 0x10
   374 000001D3 C606[A34F]01        <1>     mov byte [text_console_ready], 1
   375                              <1> 
   376                              <1> .refresh:
   377 000001D8 E82200              <1>     call refresh_text_console_metrics
   378 000001DB E85500              <1>     call clear_text_screen
   379 000001DE 07                  <1>     pop es
   380 000001DF 1F                  <1>     pop ds
   381 000001E0 5D                  <1>     pop bp
   382 000001E1 5F                  <1>     pop di
   383 000001E2 5E                  <1>     pop si
   384 000001E3 5A                  <1>     pop dx
   385 000001E4 59                  <1>     pop cx
   386 000001E5 5B                  <1>     pop bx
   387 000001E6 C3                  <1>     ret
   388                              <1> 
   389                              <1> set_graphics_mode:
   390 000001E7 53                  <1>     push bx
   391 000001E8 51                  <1>     push cx
   392 000001E9 52                  <1>     push dx
   393 000001EA 56                  <1>     push si
   394 000001EB 57                  <1>     push di
   395 000001EC 55                  <1>     push bp
   396 000001ED 1E                  <1>     push ds
   397 000001EE 06                  <1>     push es
   398 000001EF B81300              <1>     mov ax, 0x0013
   399 000001F2 CD10                <1>     int 0x10
   400 000001F4 07                  <1>     pop es
   401 000001F5 1F                  <1>     pop ds
   402 000001F6 5D                  <1>     pop bp
   403 000001F7 5F                  <1>     pop di
   404 000001F8 5E                  <1>     pop si
   405 000001F9 5A                  <1>     pop dx
   406 000001FA 59                  <1>     pop cx
   407 000001FB 5B                  <1>     pop bx
   408 000001FC C3                  <1>     ret
   409                              <1> 
   410                              <1> refresh_text_console_metrics:
   411 000001FD 50                  <1>     push ax
   412 000001FE 53                  <1>     push bx
   413 000001FF 06                  <1>     push es
   414                              <1> 
   415 00000200 B40F                <1>     mov ah, 0x0f
   416 00000202 CD10                <1>     int 0x10
   417 00000204 A2[9C4F]            <1>     mov [hardware_video_mode], al
   418 00000207 8826[9D4F]          <1>     mov [hardware_video_cols], ah
   419 0000020B 883E[9F4F]          <1>     mov [hardware_video_page], bh
   420                              <1> 
   421 0000020F B84000              <1>     mov ax, 0x0040
   422 00000212 8EC0                <1>     mov es, ax
   423 00000214 26A08400            <1>     mov al, [es:0x84]
   424 00000218 84C0                <1>     test al, al
   425 0000021A 7502                <1>     jnz .have_rows_minus_one
   426 0000021C B018                <1>     mov al, 24
   427                              <1> 
   428                              <1> .have_rows_minus_one:
   429 0000021E FEC0                <1>     inc al
   430 00000220 A2[9E4F]            <1>     mov [hardware_video_rows], al
   431 00000223 803E[9D4F]00        <1>     cmp byte [hardware_video_cols], 0
   432 00000228 7505                <1>     jne .done
   433 0000022A C606[9D4F]50        <1>     mov byte [hardware_video_cols], 80
   434                              <1> 
   435                              <1> .done:
   436 0000022F 07                  <1>     pop es
   437 00000230 5B                  <1>     pop bx
   438 00000231 58                  <1>     pop ax
   439 00000232 C3                  <1>     ret
   440                              <1> 
   441                              <1> clear_text_screen:
   442 00000233 50                  <1>     push ax
   443 00000234 53                  <1>     push bx
   444 00000235 51                  <1>     push cx
   445 00000236 52                  <1>     push dx
   446                              <1> 
   447 00000237 31C9                <1>     xor cx, cx
   448 00000239 31C0                <1>     xor ax, ax
   449 0000023B B406                <1>     mov ah, 0x06
   450 0000023D B707                <1>     mov bh, 0x07
   451 0000023F 8A16[9D4F]          <1>     mov dl, [hardware_video_cols]
   452 00000243 84D2                <1>     test dl, dl
   453 00000245 7502                <1>     jnz .have_cols
   454 00000247 B250                <1>     mov dl, 80
   455                              <1> 
   456                              <1> .have_cols:
   457 00000249 FECA                <1>     dec dl
   458 0000024B 8A36[9E4F]          <1>     mov dh, [hardware_video_rows]
   459 0000024F 84F6                <1>     test dh, dh
   460 00000251 7502                <1>     jnz .have_rows
   461 00000253 B619                <1>     mov dh, 25
   462                              <1> 
   463                              <1> .have_rows:
   464 00000255 FECE                <1>     dec dh
   465 00000257 CD10                <1>     int 0x10
   466                              <1> 
   467 00000259 B402                <1>     mov ah, 0x02
   468 0000025B 8A3E[9F4F]          <1>     mov bh, [hardware_video_page]
   469 0000025F 31D2                <1>     xor dx, dx
   470 00000261 CD10                <1>     int 0x10
   471                              <1> 
   472 00000263 5A                  <1>     pop dx
   473 00000264 59                  <1>     pop cx
   474 00000265 5B                  <1>     pop bx
   475 00000266 58                  <1>     pop ax
   476 00000267 C3                  <1>     ret
   477                              <1> 
   478                              <1> print_string:
   479 00000268 AC                  <1>     lodsb
   480 00000269 84C0                <1>     test al, al
   481 0000026B 7405                <1>     jz .done
   482 0000026D E80300              <1>     call print_char
   483 00000270 EBF6                <1>     jmp print_string
   484                              <1> .done:
   485 00000272 C3                  <1>     ret
   486                              <1> 
   487                              <1> print_char:
   488 00000273 50                  <1>     push ax
   489 00000274 53                  <1>     push bx
   490 00000275 51                  <1>     push cx
   491 00000276 52                  <1>     push dx
   492 00000277 56                  <1>     push si
   493 00000278 57                  <1>     push di
   494 00000279 55                  <1>     push bp
   495 0000027A 1E                  <1>     push ds
   496 0000027B 06                  <1>     push es
   497 0000027C B40E                <1>     mov ah, 0x0e
   498 0000027E B700                <1>     mov bh, 0x00
   499 00000280 B307                <1>     mov bl, 0x07
   500 00000282 CD10                <1>     int 0x10
   501 00000284 07                  <1>     pop es
   502 00000285 1F                  <1>     pop ds
   503 00000286 5D                  <1>     pop bp
   504 00000287 5F                  <1>     pop di
   505 00000288 5E                  <1>     pop si
   506 00000289 5A                  <1>     pop dx
   507 0000028A 59                  <1>     pop cx
   508 0000028B 5B                  <1>     pop bx
   509 0000028C 58                  <1>     pop ax
   510 0000028D E82C00              <1>     call serial_write
   511 00000290 C3                  <1>     ret
   512                              <1> 
   513                              <1> serial_init:
   514 00000291 BAF903              <1>     mov dx, COM1_PORT + 1
   515 00000294 30C0                <1>     xor al, al
   516 00000296 EE                  <1>     out dx, al
   517                              <1> 
   518 00000297 BAFB03              <1>     mov dx, COM1_PORT + 3
   519 0000029A B080                <1>     mov al, 0x80
   520 0000029C EE                  <1>     out dx, al
   521                              <1> 
   522 0000029D BAF803              <1>     mov dx, COM1_PORT + 0
   523 000002A0 B001                <1>     mov al, 0x01
   524 000002A2 EE                  <1>     out dx, al
   525                              <1> 
   526 000002A3 BAF903              <1>     mov dx, COM1_PORT + 1
   527 000002A6 30C0                <1>     xor al, al
   528 000002A8 EE                  <1>     out dx, al
   529                              <1> 
   530 000002A9 BAFB03              <1>     mov dx, COM1_PORT + 3
   531 000002AC B003                <1>     mov al, 0x03
   532 000002AE EE                  <1>     out dx, al
   533                              <1> 
   534 000002AF BAFA03              <1>     mov dx, COM1_PORT + 2
   535 000002B2 B0C7                <1>     mov al, 0xc7
   536 000002B4 EE                  <1>     out dx, al
   537                              <1> 
   538 000002B5 BAFC03              <1>     mov dx, COM1_PORT + 4
   539 000002B8 B00B                <1>     mov al, 0x0b
   540 000002BA EE                  <1>     out dx, al
   541 000002BB C3                  <1>     ret
   542                              <1> 
   543                              <1> serial_write:
   544 000002BC 50                  <1>     push ax
   545 000002BD 52                  <1>     push dx
   546                              <1> .wait:
   547 000002BE BAFD03              <1>     mov dx, COM1_PORT + 5
   548 000002C1 EC                  <1>     in al, dx
   549 000002C2 A820                <1>     test al, 0x20
   550 000002C4 74F8                <1>     jz .wait
   551 000002C6 5A                  <1>     pop dx
   552 000002C7 58                  <1>     pop ax
   553 000002C8 BAF803              <1>     mov dx, COM1_PORT
   554 000002CB EE                  <1>     out dx, al
   555 000002CC C3                  <1>     ret
   556                              <1> 
   557                              <1> serial_write_string:
   558 000002CD AC                  <1>     lodsb
   559 000002CE 84C0                <1>     test al, al
   560 000002D0 7405                <1>     jz .done
   561 000002D2 E8E7FF              <1>     call serial_write
   562 000002D5 EBF6                <1>     jmp serial_write_string
   563                              <1> .done:
   564 000002D7 C3                  <1>     ret
   565                              <1> 
   566                              <1> kernel_runtime_set_latent:
   567 000002D8 B001                <1>     mov al, KERNEL_RUNTIME_LATENT
   568 000002DA EB04                <1>     jmp kernel_runtime_set_state
   569                              <1> 
   570                              <1> kernel_runtime_set_busy:
   571 000002DC B002                <1>     mov al, KERNEL_RUNTIME_BUSY
   572 000002DE EB00                <1>     jmp kernel_runtime_set_state
   573                              <1> 
   574                              <1> kernel_runtime_set_state:
   575 000002E0 3806[A54F]          <1>     cmp byte [kernel_runtime_state], al
   576 000002E4 7419                <1>     je .done
   577 000002E6 A2[A54F]            <1>     mov byte [kernel_runtime_state], al
   578 000002E9 50                  <1>     push ax
   579 000002EA 56                  <1>     push si
   580 000002EB 3C01                <1>     cmp al, KERNEL_RUNTIME_LATENT
   581 000002ED 7508                <1>     jne .busy
   582 000002EF BE[7A32]            <1>     mov si, msg_kernel_runtime_latent
   583 000002F2 E8D8FF              <1>     call serial_write_string
   584 000002F5 EB06                <1>     jmp .emit_done
   585                              <1> 
   586                              <1> .busy:
   587 000002F7 BE[9232]            <1>     mov si, msg_kernel_runtime_busy
   588 000002FA E8D0FF              <1>     call serial_write_string
   589                              <1> 
   590                              <1> .emit_done:
   591 000002FD 5E                  <1>     pop si
   592 000002FE 58                  <1>     pop ax
   593                              <1> 
   594                              <1> .done:
   595 000002FF C3                  <1>     ret
   596                              <1> 
   597                              <1> serial_write_json_escaped:
   598 00000300 AC                  <1>     lodsb
   599 00000301 84C0                <1>     test al, al
   600 00000303 7424                <1>     jz .done
   601 00000305 3C22                <1>     cmp al, '"'
   602 00000307 740D                <1>     je .escape
   603 00000309 3C5C                <1>     cmp al, '\'
   604 0000030B 7409                <1>     je .escape
   605 0000030D 3C20                <1>     cmp al, 32
   606 0000030F 7211                <1>     jb .space
   607 00000311 E8A8FF              <1>     call serial_write
   608 00000314 EBEA                <1>     jmp serial_write_json_escaped
   609                              <1> 
   610                              <1> .escape:
   611 00000316 50                  <1>     push ax
   612 00000317 B05C                <1>     mov al, '\'
   613 00000319 E8A0FF              <1>     call serial_write
   614 0000031C 58                  <1>     pop ax
   615 0000031D E89CFF              <1>     call serial_write
   616 00000320 EBDE                <1>     jmp serial_write_json_escaped
   617                              <1> 
   618                              <1> .space:
   619 00000322 B020                <1>     mov al, ' '
   620 00000324 E895FF              <1>     call serial_write
   621 00000327 EBD7                <1>     jmp serial_write_json_escaped
   622                              <1> 
   623                              <1> .done:
   624 00000329 C3                  <1>     ret
   625                              <1> 
   626                              <1> buffer_write_string:
   627 0000032A AC                  <1>     lodsb
   628 0000032B 84C0                <1>     test al, al
   629 0000032D 7405                <1>     jz .done
   630 0000032F 8805                <1>     mov [di], al
   631 00000331 47                  <1>     inc di
   632 00000332 EBF6                <1>     jmp buffer_write_string
   633                              <1> .done:
   634 00000334 C3                  <1>     ret
   635                              <1> 
   636                              <1> buffer_write_json_escaped:
   637 00000335 AC                  <1>     lodsb
   638 00000336 84C0                <1>     test al, al
   639 00000338 7420                <1>     jz .done
   640 0000033A 3C22                <1>     cmp al, '"'
   641 0000033C 740D                <1>     je .escape
   642 0000033E 3C5C                <1>     cmp al, '\'
   643 00000340 7409                <1>     je .escape
   644 00000342 3C20                <1>     cmp al, 32
   645 00000344 720E                <1>     jb .space
   646 00000346 8805                <1>     mov [di], al
   647 00000348 47                  <1>     inc di
   648 00000349 EBEA                <1>     jmp buffer_write_json_escaped
   649                              <1> 
   650                              <1> .escape:
   651 0000034B C6055C              <1>     mov byte [di], '\'
   652 0000034E 47                  <1>     inc di
   653 0000034F 8805                <1>     mov [di], al
   654 00000351 47                  <1>     inc di
   655 00000352 EBE1                <1>     jmp buffer_write_json_escaped
   656                              <1> 
   657                              <1> .space:
   658 00000354 C60520              <1>     mov byte [di], ' '
   659 00000357 47                  <1>     inc di
   660 00000358 EBDB                <1>     jmp buffer_write_json_escaped
   661                              <1> 
   662                              <1> .done:
   663 0000035A C3                  <1>     ret
   664                              <1> 
   665                              <1> write_hex32_buffer_eax:
   666 0000035B 50                  <1>     push ax
   667 0000035C 53                  <1>     push bx
   668 0000035D 51                  <1>     push cx
   669 0000035E 52                  <1>     push dx
   670 0000035F B90800              <1>     mov cx, 8
   671                              <1> 
   672                              <1> .loop:
   673 00000362 66C1C004            <1>     rol eax, 4
   674 00000366 88C2                <1>     mov dl, al
   675 00000368 80E20F              <1>     and dl, 0x0f
   676 0000036B 31DB                <1>     xor bx, bx
   677 0000036D 88D3                <1>     mov bl, dl
   678 0000036F 8A87[4B7C]          <1>     mov al, [hex_digits + bx]
   679 00000373 8805                <1>     mov [di], al
   680 00000375 47                  <1>     inc di
   681 00000376 E2EA                <1>     loop .loop
   682                              <1> 
   683 00000378 5A                  <1>     pop dx
   684 00000379 59                  <1>     pop cx
   685 0000037A 5B                  <1>     pop bx
   686 0000037B 58                  <1>     pop ax
   687 0000037C C3                  <1>     ret
   688                              <1> 
   689                              <1> buffer_write_generation_field:
   690 0000037D 56                  <1>     push si
   691 0000037E 6650                <1>     push eax
   692 00000380 BE[EA34]            <1>     mov si, msg_generation_json_prefix
   693 00000383 E8A4FF              <1>     call buffer_write_string
   694 00000386 66A1[A138]          <1>     mov eax, [generation]
   695 0000038A E8CEFF              <1>     call write_hex32_buffer_eax
   696 0000038D BE[FC34]            <1>     mov si, msg_generation_json_suffix
   697 00000390 E897FF              <1>     call buffer_write_string
   698 00000393 6658                <1>     pop eax
   699 00000395 5E                  <1>     pop si
   700 00000396 C3                  <1>     ret
   701                              <1> 
   702                              <1> serial_write_buffer:
   703 00000397 56                  <1>     push si
   704 00000398 BE[4B7A]            <1>     mov si, host_request_buffer
   705 0000039B E82FFF              <1>     call serial_write_string
   706 0000039E 5E                  <1>     pop si
   707 0000039F C3                  <1>     ret
   708                              <1> 
   709                              <1> read_serial_char:
   710 000003A0 52                  <1>     push dx
   711                              <1> .wait:
   712 000003A1 BAFD03              <1>     mov dx, COM1_PORT + 5
   713 000003A4 EC                  <1>     in al, dx
   714 000003A5 A801                <1>     test al, 0x01
   715 000003A7 74F8                <1>     jz .wait
   716 000003A9 BAF803              <1>     mov dx, COM1_PORT
   717 000003AC EC                  <1>     in al, dx
   718 000003AD 5A                  <1>     pop dx
   719 000003AE C3                  <1>     ret
   720                              <1> 
   721                              <1> read_serial_line:
   722 000003AF 53                  <1>     push bx
   723 000003B0 31DB                <1>     xor bx, bx
   724                              <1> 
   725                              <1> .loop:
   726 000003B2 E8EBFF              <1>     call read_serial_char
   727 000003B5 3C0D                <1>     cmp al, 0x0d
   728 000003B7 740E                <1>     je .newline
   729 000003B9 3C0A                <1>     cmp al, 0x0a
   730 000003BB 740A                <1>     je .newline
   731 000003BD 39CB                <1>     cmp bx, cx
   732 000003BF 73F1                <1>     jae .loop
   733 000003C1 8805                <1>     mov [di], al
   734 000003C3 47                  <1>     inc di
   735 000003C4 43                  <1>     inc bx
   736 000003C5 EBEB                <1>     jmp .loop
   737                              <1> 
   738                              <1> .newline:
   739 000003C7 85DB                <1>     test bx, bx
   740 000003C9 74E7                <1>     jz .loop
   741 000003CB C60500              <1>     mov byte [di], 0
   742 000003CE 5B                  <1>     pop bx
   743 000003CF C3                  <1>     ret
   744                              <1> 
   745                              <1> host_read_response_silent:
   746 000003D0 BF[4B78]            <1>     mov di, serial_line_buffer
   747 000003D3 B9FF01              <1>     mov cx, SERIAL_LINE_MAX
   748 000003D6 E8D6FF              <1>     call read_serial_line
   749 000003D9 C3                  <1>     ret
   750                              <1> 
   751                              <1> streq:
   752 000003DA 56                  <1>     push si
   753 000003DB 57                  <1>     push di
   754                              <1> 
   755                              <1> .loop:
   756 000003DC 8A04                <1>     mov al, [si]
   757 000003DE 8A25                <1>     mov ah, [di]
   758 000003E0 38E0                <1>     cmp al, ah
   759 000003E2 750C                <1>     jne .not_equal
   760 000003E4 84C0                <1>     test al, al
   761 000003E6 7404                <1>     je .equal
   762 000003E8 46                  <1>     inc si
   763 000003E9 47                  <1>     inc di
   764 000003EA EBF0                <1>     jmp .loop
   765                              <1> 
   766                              <1> .equal:
   767 000003EC B001                <1>     mov al, 1
   768 000003EE EB02                <1>     jmp .done
   769                              <1> 
   770                              <1> .not_equal:
   771 000003F0 30C0                <1>     xor al, al
   772                              <1> 
   773                              <1> .done:
   774 000003F2 5F                  <1>     pop di
   775 000003F3 5E                  <1>     pop si
   776 000003F4 C3                  <1>     ret
   777                              <1> 
   778                              <1> skip_spaces:
   779                              <1> .loop:
   780 000003F5 803C20              <1>     cmp byte [si], ' '
   781 000003F8 7405                <1>     je .consume
   782 000003FA 803C09              <1>     cmp byte [si], 0x09
   783 000003FD 7503                <1>     jne .done
   784                              <1> .consume:
   785 000003FF 46                  <1>     inc si
   786 00000400 EBF3                <1>     jmp .loop
   787                              <1> .done:
   788 00000402 C3                  <1>     ret
   789                              <1> 
   790                              <1> parse_signed_int:
   791 00000403 53                  <1>     push bx
   792 00000404 51                  <1>     push cx
   793 00000405 52                  <1>     push dx
   794                              <1> 
   795 00000406 E8ECFF              <1>     call skip_spaces
   796 00000409 31D2                <1>     xor dx, dx
   797 0000040B 803C2D              <1>     cmp byte [si], '-'
   798 0000040E 7505                <1>     jne .check_plus
   799 00000410 B601                <1>     mov dh, 1
   800 00000412 46                  <1>     inc si
   801 00000413 EB06                <1>     jmp .digits
   802                              <1> 
   803                              <1> .check_plus:
   804 00000415 803C2B              <1>     cmp byte [si], '+'
   805 00000418 7501                <1>     jne .digits
   806 0000041A 46                  <1>     inc si
   807                              <1> 
   808                              <1> .digits:
   809 0000041B 31DB                <1>     xor bx, bx
   810 0000041D 31C9                <1>     xor cx, cx
   811                              <1> 
   812                              <1> .digit_loop:
   813 0000041F 8A14                <1>     mov dl, [si]
   814 00000421 80FA30              <1>     cmp dl, '0'
   815 00000424 7236                <1>     jb .finish
   816 00000426 80FA39              <1>     cmp dl, '9'
   817 00000429 7731                <1>     ja .finish
   818 0000042B 80EA30              <1>     sub dl, '0'
   819                              <1> 
   820 0000042E 81FBCC0C            <1>     cmp bx, 3276
   821 00000432 773C                <1>     ja .overflow
   822 00000434 7210                <1>     jb .accumulate
   823 00000436 84F6                <1>     test dh, dh
   824 00000438 7507                <1>     jnz .negative_limit
   825 0000043A 80FA07              <1>     cmp dl, 7
   826 0000043D 7731                <1>     ja .overflow
   827 0000043F EB05                <1>     jmp .accumulate
   828                              <1> 
   829                              <1> .negative_limit:
   830 00000441 80FA08              <1>     cmp dl, 8
   831 00000444 772A                <1>     ja .overflow
   832                              <1> 
   833                              <1> .accumulate:
   834 00000446 89D8                <1>     mov ax, bx
   835 00000448 D1E3                <1>     shl bx, 1
   836 0000044A D1E0                <1>     shl ax, 1
   837 0000044C D1E0                <1>     shl ax, 1
   838 0000044E D1E0                <1>     shl ax, 1
   839 00000450 01C3                <1>     add bx, ax
   840                              <1> 
   841 00000452 31C0                <1>     xor ax, ax
   842 00000454 88D0                <1>     mov al, dl
   843 00000456 01C3                <1>     add bx, ax
   844                              <1> 
   845 00000458 46                  <1>     inc si
   846 00000459 41                  <1>     inc cx
   847 0000045A EBC3                <1>     jmp .digit_loop
   848                              <1> 
   849                              <1> .finish:
   850 0000045C 85C9                <1>     test cx, cx
   851 0000045E 740B                <1>     jz .fail
   852 00000460 89D8                <1>     mov ax, bx
   853 00000462 84F6                <1>     test dh, dh
   854 00000464 7402                <1>     jz .ok
   855 00000466 F7D8                <1>     neg ax
   856                              <1> .ok:
   857 00000468 F8                  <1>     clc
   858 00000469 EB09                <1>     jmp .done
   859                              <1> 
   860                              <1> .fail:
   861 0000046B 31C0                <1>     xor ax, ax
   862 0000046D F9                  <1>     stc
   863 0000046E EB04                <1>     jmp .done
   864                              <1> 
   865                              <1> .overflow:
   866 00000470 B80100              <1>     mov ax, 1
   867 00000473 F9                  <1>     stc
   868                              <1> 
   869                              <1> .done:
   870 00000474 5A                  <1>     pop dx
   871 00000475 59                  <1>     pop cx
   872 00000476 5B                  <1>     pop bx
   873 00000477 C3                  <1>     ret
   874                              <1> 
   875                              <1> print_uint_ax:
   876 00000478 50                  <1>     push ax
   877 00000479 53                  <1>     push bx
   878 0000047A 51                  <1>     push cx
   879 0000047B 52                  <1>     push dx
   880                              <1> 
   881 0000047C 83F800              <1>     cmp ax, 0
   882 0000047F 7507                <1>     jne .convert
   883 00000481 B030                <1>     mov al, '0'
   884 00000483 E8EDFD              <1>     call print_char
   885 00000486 EB1A                <1>     jmp .done
   886                              <1> 
   887                              <1> .convert:
   888 00000488 31C9                <1>     xor cx, cx
   889 0000048A BB0A00              <1>     mov bx, 10
   890                              <1> 
   891                              <1> .loop:
   892 0000048D 31D2                <1>     xor dx, dx
   893 0000048F F7F3                <1>     div bx
   894 00000491 52                  <1>     push dx
   895 00000492 41                  <1>     inc cx
   896 00000493 85C0                <1>     test ax, ax
   897 00000495 75F6                <1>     jne .loop
   898                              <1> 
   899                              <1> .emit:
   900 00000497 5A                  <1>     pop dx
   901 00000498 80C230              <1>     add dl, '0'
   902 0000049B 88D0                <1>     mov al, dl
   903 0000049D E8D3FD              <1>     call print_char
   904 000004A0 E2F5                <1>     loop .emit
   905                              <1> 
   906                              <1> .done:
   907 000004A2 5A                  <1>     pop dx
   908 000004A3 59                  <1>     pop cx
   909 000004A4 5B                  <1>     pop bx
   910 000004A5 58                  <1>     pop ax
   911 000004A6 C3                  <1>     ret
   912                              <1> 
   913                              <1> print_int_ax:
   914 000004A7 85C0                <1>     test ax, ax
   915 000004A9 7915                <1>     jns .unsigned
   916 000004AB 3D0080              <1>     cmp ax, 0x8000
   917 000004AE 7507                <1>     jne .negate
   918 000004B0 BE[F129]            <1>     mov si, msg_int_min
   919 000004B3 E8B2FD              <1>     call print_string
   920 000004B6 C3                  <1>     ret
   921                              <1> 
   922                              <1> .negate:
   923 000004B7 50                  <1>     push ax
   924 000004B8 B02D                <1>     mov al, '-'
   925 000004BA E8B6FD              <1>     call print_char
   926 000004BD 58                  <1>     pop ax
   927 000004BE F7D8                <1>     neg ax
   928                              <1> .unsigned:
   929 000004C0 E8B5FF              <1>     call print_uint_ax
   930 000004C3 C3                  <1>     ret
   931                              <1> 
   932                              <1> print_hex32_eax:
   933 000004C4 51                  <1>     push cx
   934 000004C5 52                  <1>     push dx
   935 000004C6 B90800              <1>     mov cx, 8
   936                              <1> 
   937                              <1> .loop:
   938 000004C9 66C1C004            <1>     rol eax, 4
   939 000004CD 6650                <1>     push eax
   940 000004CF 88C2                <1>     mov dl, al
   941 000004D1 80E20F              <1>     and dl, 0x0f
   942 000004D4 80FA09              <1>     cmp dl, 9
   943 000004D7 7605                <1>     jbe .digit
   944 000004D9 80C237              <1>     add dl, 'A' - 10
   945 000004DC EB03                <1>     jmp .emit
   946                              <1> 
   947                              <1> .digit:
   948 000004DE 80C230              <1>     add dl, '0'
   949                              <1> 
   950                              <1> .emit:
   951 000004E1 88D0                <1>     mov al, dl
   952 000004E3 E88DFD              <1>     call print_char
   953 000004E6 6658                <1>     pop eax
   954 000004E8 E2DF                <1>     loop .loop
   955                              <1> 
   956 000004EA 5A                  <1>     pop dx
   957 000004EB 59                  <1>     pop cx
   958 000004EC C3                  <1>     ret
   959                              <1> 
   960                              <1> print_hex64_from_si:
   961 000004ED 6650                <1>     push eax
   962 000004EF 668B4404            <1>     mov eax, [si + 4]
   963 000004F3 E8CEFF              <1>     call print_hex32_eax
   964 000004F6 668B04              <1>     mov eax, [si]
   965 000004F9 E8C8FF              <1>     call print_hex32_eax
   966 000004FC 6658                <1>     pop eax
   967 000004FE C3                  <1>     ret
   968                              <1> 
   969                              <1> print_hex_nibble_al:
   970 000004FF 3C09                <1>     cmp al, 9
   971 00000501 7604                <1>     jbe .digit
   972 00000503 0437                <1>     add al, 'A' - 10
   973 00000505 EB02                <1>     jmp .emit
   974                              <1> 
   975                              <1> .digit:
   976 00000507 0430                <1>     add al, '0'
   977                              <1> 
   978                              <1> .emit:
   979 00000509 E867FD              <1>     call print_char
   980 0000050C C3                  <1>     ret
   981                              <1> 
   982                              <1> print_hex_nibble_safe:
   983 0000050D 53                  <1>     push bx
   984 0000050E 240F                <1>     and al, 0x0f
   985 00000510 31DB                <1>     xor bx, bx
   986 00000512 88C3                <1>     mov bl, al
   987 00000514 8A87[4B7C]          <1>     mov al, [hex_digits + bx]
   988 00000518 E858FD              <1>     call print_char
   989 0000051B 5B                  <1>     pop bx
   990 0000051C C3                  <1>     ret
   991                              <1> 
   992                              <1> print_hex_byte_safe:
   993 0000051D 50                  <1>     push ax
   994 0000051E 88C4                <1>     mov ah, al
   995 00000520 C0E804              <1>     shr al, 4
   996 00000523 E8E7FF              <1>     call print_hex_nibble_safe
   997 00000526 88E0                <1>     mov al, ah
   998 00000528 E8E2FF              <1>     call print_hex_nibble_safe
   999 0000052B 58                  <1>     pop ax
  1000 0000052C C3                  <1>     ret
  1001                              <1> 
  1002                              <1> print_hex_word_safe:
  1003 0000052D 50                  <1>     push ax
  1004 0000052E 88E0                <1>     mov al, ah
  1005 00000530 E8EAFF              <1>     call print_hex_byte_safe
  1006 00000533 58                  <1>     pop ax
  1007 00000534 E8E6FF              <1>     call print_hex_byte_safe
  1008 00000537 C3                  <1>     ret
  1009                              <1> 
  1010                              <1> print_hex8_al:
  1011 00000538 50                  <1>     push ax
  1012 00000539 52                  <1>     push dx
  1013 0000053A 88C2                <1>     mov dl, al
  1014 0000053C 88D0                <1>     mov al, dl
  1015 0000053E C0E804              <1>     shr al, 4
  1016 00000541 E8BBFF              <1>     call print_hex_nibble_al
  1017 00000544 88D0                <1>     mov al, dl
  1018 00000546 240F                <1>     and al, 0x0f
  1019 00000548 E8B4FF              <1>     call print_hex_nibble_al
  1020 0000054B 5A                  <1>     pop dx
  1021 0000054C 58                  <1>     pop ax
  1022 0000054D C3                  <1>     ret
  1023                              <1> 
  1024                              <1> print_hex16_ax:
  1025 0000054E 50                  <1>     push ax
  1026 0000054F 88E0                <1>     mov al, ah
  1027 00000551 E8E4FF              <1>     call print_hex8_al
  1028 00000554 58                  <1>     pop ax
  1029 00000555 E8E0FF              <1>     call print_hex8_al
  1030 00000558 C3                  <1>     ret
  1031                              <1> 
  1032                              <1> serial_write_hex32_eax:
  1033 00000559 51                  <1>     push cx
  1034 0000055A 52                  <1>     push dx
  1035 0000055B 6650                <1>     push eax
  1036 0000055D B90800              <1>     mov cx, 8
  1037                              <1> 
  1038                              <1> .loop:
  1039 00000560 66C1C004            <1>     rol eax, 4
  1040 00000564 6650                <1>     push eax
  1041 00000566 88C2                <1>     mov dl, al
  1042 00000568 80E20F              <1>     and dl, 0x0f
  1043 0000056B 80FA09              <1>     cmp dl, 9
  1044 0000056E 7605                <1>     jbe .digit
  1045 00000570 80C237              <1>     add dl, 'A' - 10
  1046 00000573 EB03                <1>     jmp .emit
  1047                              <1> 
  1048                              <1> .digit:
  1049 00000575 80C230              <1>     add dl, '0'
  1050                              <1> 
  1051                              <1> .emit:
  1052 00000578 88D0                <1>     mov al, dl
  1053 0000057A E83FFD              <1>     call serial_write
  1054 0000057D 6658                <1>     pop eax
  1055 0000057F E2DF                <1>     loop .loop
  1056                              <1> 
  1057 00000581 6658                <1>     pop eax
  1058 00000583 5A                  <1>     pop dx
  1059 00000584 59                  <1>     pop cx
  1060 00000585 C3                  <1>     ret
  1061                              <1> 
  1062                              <1> announce_generation:
  1063 00000586 56                  <1>     push si
  1064 00000587 6650                <1>     push eax
  1065 00000589 BE[6A31]            <1>     mov si, msg_generation
  1066 0000058C E8D9FC              <1>     call print_string
  1067 0000058F 66A1[A138]          <1>     mov eax, [generation]
  1068 00000593 E82EFF              <1>     call print_hex32_eax
  1069 00000596 BE[1637]            <1>     mov si, newline
  1070 00000599 E8CCFC              <1>     call print_string
  1071 0000059C 6658                <1>     pop eax
  1072 0000059E 5E                  <1>     pop si
  1073 0000059F C3                  <1>     ret
  1074                              <1> 
  1075                              <1> bump_generation:
  1076 000005A0 56                  <1>     push si
  1077 000005A1 6650                <1>     push eax
  1078 000005A3 66FF06[A138]        <1>     inc dword [generation]
  1079 000005A8 BE[7831]            <1>     mov si, msg_generation_advanced
  1080 000005AB E8BAFC              <1>     call print_string
  1081 000005AE 66A1[A138]          <1>     mov eax, [generation]
  1082 000005B2 E80FFF              <1>     call print_hex32_eax
  1083 000005B5 BE[1637]            <1>     mov si, newline
  1084 000005B8 E8ADFC              <1>     call print_string
  1085 000005BB 6658                <1>     pop eax
  1086 000005BD 5E                  <1>     pop si
  1087 000005BE C3                  <1>     ret
  1088                              <1> 
  1089                              <1> serial_write_generation_field:
  1090 000005BF 56                  <1>     push si
  1091 000005C0 6650                <1>     push eax
  1092 000005C2 BE[EA34]            <1>     mov si, msg_generation_json_prefix
  1093 000005C5 E805FD              <1>     call serial_write_string
  1094 000005C8 66A1[A138]          <1>     mov eax, [generation]
  1095 000005CC E88AFF              <1>     call serial_write_hex32_eax
  1096 000005CF BE[FC34]            <1>     mov si, msg_generation_json_suffix
  1097 000005D2 E8F8FC              <1>     call serial_write_string
  1098 000005D5 6658                <1>     pop eax
  1099 000005D7 5E                  <1>     pop si
  1100 000005D8 C3                  <1>     ret
  1101                              <1> 
  1102                              <1> print_e820_type:
  1103 000005D9 6650                <1>     push eax
  1104 000005DB 66A1[BA4F]          <1>     mov eax, [e820_buffer + 16]
  1105 000005DF 6683F801            <1>     cmp eax, 1
  1106 000005E3 7420                <1>     je .usable
  1107 000005E5 6683F802            <1>     cmp eax, 2
  1108 000005E9 7422                <1>     je .reserved
  1109 000005EB 6683F803            <1>     cmp eax, 3
  1110 000005EF 7424                <1>     je .acpi
  1111 000005F1 6683F804            <1>     cmp eax, 4
  1112 000005F5 7426                <1>     je .nvs
  1113 000005F7 6683F805            <1>     cmp eax, 5
  1114 000005FB 7428                <1>     je .bad
  1115 000005FD BE[0229]            <1>     mov si, msg_e820_type_unknown
  1116 00000600 E865FC              <1>     call print_string
  1117 00000603 EB26                <1>     jmp .done
  1118                              <1> 
  1119                              <1> .usable:
  1120 00000605 BE[CD28]            <1>     mov si, msg_e820_type_usable
  1121 00000608 E85DFC              <1>     call print_string
  1122 0000060B EB1E                <1>     jmp .done
  1123                              <1> 
  1124                              <1> .reserved:
  1125 0000060D BE[D428]            <1>     mov si, msg_e820_type_reserved
  1126 00000610 E855FC              <1>     call print_string
  1127 00000613 EB16                <1>     jmp .done
  1128                              <1> 
  1129                              <1> .acpi:
  1130 00000615 BE[DD28]            <1>     mov si, msg_e820_type_acpi
  1131 00000618 E84DFC              <1>     call print_string
  1132 0000061B EB0E                <1>     jmp .done
  1133                              <1> 
  1134                              <1> .nvs:
  1135 0000061D BE[EE28]            <1>     mov si, msg_e820_type_nvs
  1136 00000620 E845FC              <1>     call print_string
  1137 00000623 EB06                <1>     jmp .done
  1138                              <1> 
  1139                              <1> .bad:
  1140 00000625 BE[F728]            <1>     mov si, msg_e820_type_bad
  1141 00000628 E83DFC              <1>     call print_string
  1142                              <1> 
  1143                              <1> .done:
  1144 0000062B 6658                <1>     pop eax
  1145 0000062D C3                  <1>     ret
     5                                  %include "boot/stage2/02_systems.asm"
     1                              <1> hardware_list:
     2 0000062E E87DFB              <1>     call set_text_mode
     3 00000631 BE[1627]            <1>     mov si, msg_hardware_header
     4 00000634 E831FC              <1>     call print_string
     5                              <1> 
     6 00000637 CD11                <1>     int 0x11
     7 00000639 A3[9A4F]            <1>     mov [hardware_equipment_word], ax
     8 0000063C BE[2E27]            <1>     mov si, msg_hardware_equipment
     9 0000063F E826FC              <1>     call print_string
    10 00000642 A1[9A4F]            <1>     mov ax, [hardware_equipment_word]
    11 00000645 E8E5FE              <1>     call print_hex_word_safe
    12 00000648 BE[1637]            <1>     mov si, newline
    13 0000064B E81AFC              <1>     call print_string
    14                              <1> 
    15 0000064E CD12                <1>     int 0x12
    16 00000650 BE[4127]            <1>     mov si, msg_hardware_base_memory
    17 00000653 E812FC              <1>     call print_string
    18 00000656 E81FFE              <1>     call print_uint_ax
    19 00000659 BE[4F27]            <1>     mov si, msg_hardware_kb_suffix
    20 0000065C E809FC              <1>     call print_string
    21                              <1> 
    22 0000065F E89BFB              <1>     call refresh_text_console_metrics
    23 00000662 BE[5527]            <1>     mov si, msg_hardware_video
    24 00000665 E800FC              <1>     call print_string
    25 00000668 31C0                <1>     xor ax, ax
    26 0000066A A0[9C4F]            <1>     mov al, [hardware_video_mode]
    27 0000066D E8ADFE              <1>     call print_hex_byte_safe
    28 00000670 BE[6427]            <1>     mov si, msg_hardware_video_cols
    29 00000673 E8F2FB              <1>     call print_string
    30 00000676 31C0                <1>     xor ax, ax
    31 00000678 A0[9D4F]            <1>     mov al, [hardware_video_cols]
    32 0000067B E8FAFD              <1>     call print_uint_ax
    33 0000067E BE[6B27]            <1>     mov si, msg_hardware_video_rows
    34 00000681 E8E4FB              <1>     call print_string
    35 00000684 31C0                <1>     xor ax, ax
    36 00000686 A0[9E4F]            <1>     mov al, [hardware_video_rows]
    37 00000689 E8ECFD              <1>     call print_uint_ax
    38 0000068C BE[7227]            <1>     mov si, msg_hardware_video_page
    39 0000068F E8D6FB              <1>     call print_string
    40 00000692 31C0                <1>     xor ax, ax
    41 00000694 A0[9F4F]            <1>     mov al, [hardware_video_page]
    42 00000697 E8DEFD              <1>     call print_uint_ax
    43 0000069A BE[1637]            <1>     mov si, newline
    44 0000069D E8C8FB              <1>     call print_string
    45                              <1> 
    46 000006A0 E80D00              <1>     call hardware_probe_e820
    47 000006A3 E84600              <1>     call hardware_list_serial_ports
    48 000006A6 E89900              <1>     call hardware_list_parallel_ports
    49 000006A9 E8ED00              <1>     call hardware_list_drives
    50 000006AC E84F01              <1>     call hardware_probe_mouse
    51 000006AF C3                  <1>     ret
    52                              <1> 
    53                              <1> hardware_probe_e820:
    54 000006B0 BE[7927]            <1>     mov si, msg_hardware_e820_prefix
    55 000006B3 E8B2FB              <1>     call print_string
    56                              <1> 
    57 000006B6 1E                  <1>     push ds
    58 000006B7 06                  <1>     push es
    59 000006B8 BF[AA4F]            <1>     mov di, e820_buffer
    60 000006BB 6631DB              <1>     xor ebx, ebx
    61 000006BE 66B820E80000        <1>     mov eax, 0x0000E820
    62 000006C4 66BA50414D53        <1>     mov edx, 0x534D4150
    63 000006CA 66B914000000        <1>     mov ecx, 20
    64 000006D0 CD15                <1>     int 0x15
    65 000006D2 07                  <1>     pop es
    66 000006D3 1F                  <1>     pop ds
    67 000006D4 720F                <1>     jc .unavailable
    68 000006D6 663D50414D53        <1>     cmp eax, 0x534D4150
    69 000006DC 7507                <1>     jne .unavailable
    70 000006DE BE[2C28]            <1>     mov si, msg_hardware_available
    71 000006E1 E884FB              <1>     call print_string
    72 000006E4 C3                  <1>     ret
    73                              <1> 
    74                              <1> .unavailable:
    75 000006E5 BE[3828]            <1>     mov si, msg_hardware_unavailable
    76 000006E8 E87DFB              <1>     call print_string
    77 000006EB C3                  <1>     ret
    78                              <1> 
    79                              <1> hardware_list_serial_ports:
    80 000006EC BE[8B27]            <1>     mov si, msg_hardware_serial_header
    81 000006EF E876FB              <1>     call print_string
    82 000006F2 C606[A04F]00        <1>     mov byte [hardware_port_count], 0
    83                              <1> 
    84 000006F7 06                  <1>     push es
    85 000006F8 B84000              <1>     mov ax, 0x0040
    86 000006FB 8EC0                <1>     mov es, ax
    87                              <1> 
    88 000006FD 31DB                <1>     xor bx, bx
    89 000006FF B90400              <1>     mov cx, 4
    90                              <1> 
    91                              <1> .port_loop:
    92 00000702 268B07              <1>     mov ax, [es:bx]
    93 00000705 85C0                <1>     test ax, ax
    94 00000707 7425                <1>     jz .next
    95 00000709 FE06[A04F]          <1>     inc byte [hardware_port_count]
    96 0000070D BE[CF27]            <1>     mov si, msg_hardware_com_prefix
    97 00000710 E855FB              <1>     call print_string
    98 00000713 B80400              <1>     mov ax, 4
    99 00000716 29C8                <1>     sub ax, cx
   100 00000718 40                  <1>     inc ax
   101 00000719 E85CFD              <1>     call print_uint_ax
   102 0000071C BE[DD27]            <1>     mov si, msg_hardware_base_prefix
   103 0000071F E846FB              <1>     call print_string
   104 00000722 268B07              <1>     mov ax, [es:bx]
   105 00000725 E805FE              <1>     call print_hex_word_safe
   106 00000728 BE[1637]            <1>     mov si, newline
   107 0000072B E83AFB              <1>     call print_string
   108                              <1> 
   109                              <1> .next:
   110 0000072E 83C302              <1>     add bx, 2
   111 00000731 E2CF                <1>     loop .port_loop
   112                              <1> 
   113 00000733 07                  <1>     pop es
   114 00000734 803E[A04F]00        <1>     cmp byte [hardware_port_count], 0
   115 00000739 7506                <1>     jne .done
   116 0000073B BE[4628]            <1>     mov si, msg_hardware_none
   117 0000073E E827FB              <1>     call print_string
   118                              <1> 
   119                              <1> .done:
   120 00000741 C3                  <1>     ret
   121                              <1> 
   122                              <1> hardware_list_parallel_ports:
   123 00000742 BE[9B27]            <1>     mov si, msg_hardware_parallel_header
   124 00000745 E820FB              <1>     call print_string
   125 00000748 C606[A04F]00        <1>     mov byte [hardware_port_count], 0
   126                              <1> 
   127 0000074D 06                  <1>     push es
   128 0000074E B84000              <1>     mov ax, 0x0040
   129 00000751 8EC0                <1>     mov es, ax
   130                              <1> 
   131 00000753 BB0800              <1>     mov bx, 8
   132 00000756 B90300              <1>     mov cx, 3
   133                              <1> 
   134                              <1> .port_loop:
   135 00000759 268B07              <1>     mov ax, [es:bx]
   136 0000075C 85C0                <1>     test ax, ax
   137 0000075E 7425                <1>     jz .next
   138 00000760 FE06[A04F]          <1>     inc byte [hardware_port_count]
   139 00000764 BE[D627]            <1>     mov si, msg_hardware_lpt_prefix
   140 00000767 E8FEFA              <1>     call print_string
   141 0000076A B80300              <1>     mov ax, 3
   142 0000076D 29C8                <1>     sub ax, cx
   143 0000076F 40                  <1>     inc ax
   144 00000770 E805FD              <1>     call print_uint_ax
   145 00000773 BE[DD27]            <1>     mov si, msg_hardware_base_prefix
   146 00000776 E8EFFA              <1>     call print_string
   147 00000779 268B07              <1>     mov ax, [es:bx]
   148 0000077C E8AEFD              <1>     call print_hex_word_safe
   149 0000077F BE[1637]            <1>     mov si, newline
   150 00000782 E8E3FA              <1>     call print_string
   151                              <1> 
   152                              <1> .next:
   153 00000785 83C302              <1>     add bx, 2
   154 00000788 E2CF                <1>     loop .port_loop
   155                              <1> 
   156 0000078A 07                  <1>     pop es
   157 0000078B 803E[A04F]00        <1>     cmp byte [hardware_port_count], 0
   158 00000790 7506                <1>     jne .done
   159 00000792 BE[4628]            <1>     mov si, msg_hardware_none
   160 00000795 E8D0FA              <1>     call print_string
   161                              <1> 
   162                              <1> .done:
   163 00000798 C3                  <1>     ret
   164                              <1> 
   165                              <1> hardware_list_drives:
   166 00000799 BE[AD27]            <1>     mov si, msg_hardware_drive_header
   167 0000079C E8C9FA              <1>     call print_string
   168 0000079F C606[A14F]00        <1>     mov byte [hardware_drive_count], 0
   169                              <1> 
   170 000007A4 B200                <1>     mov dl, 0x00
   171 000007A6 E81D00              <1>     call hardware_probe_drive
   172 000007A9 B201                <1>     mov dl, 0x01
   173 000007AB E81800              <1>     call hardware_probe_drive
   174 000007AE B280                <1>     mov dl, 0x80
   175 000007B0 E81300              <1>     call hardware_probe_drive
   176 000007B3 B281                <1>     mov dl, 0x81
   177 000007B5 E80E00              <1>     call hardware_probe_drive
   178                              <1> 
   179 000007B8 803E[A14F]00        <1>     cmp byte [hardware_drive_count], 0
   180 000007BD 7506                <1>     jne .done
   181 000007BF BE[4628]            <1>     mov si, msg_hardware_none
   182 000007C2 E8A3FA              <1>     call print_string
   183                              <1> 
   184                              <1> .done:
   185 000007C5 C3                  <1>     ret
   186                              <1> 
   187                              <1> hardware_probe_drive:
   188 000007C6 50                  <1>     push ax
   189 000007C7 53                  <1>     push bx
   190 000007C8 51                  <1>     push cx
   191 000007C9 52                  <1>     push dx
   192                              <1> 
   193 000007CA 8816[A24F]          <1>     mov [hardware_drive_id], dl
   194 000007CE B408                <1>     mov ah, 0x08
   195 000007D0 CD13                <1>     int 0x13
   196 000007D2 7225                <1>     jc .done
   197                              <1> 
   198 000007D4 FE06[A14F]          <1>     inc byte [hardware_drive_count]
   199 000007D8 BE[E627]            <1>     mov si, msg_hardware_drive_prefix
   200 000007DB E88AFA              <1>     call print_string
   201 000007DE A0[A24F]            <1>     mov al, [hardware_drive_id]
   202 000007E1 E839FD              <1>     call print_hex_byte_safe
   203 000007E4 F606[A24F]80        <1>     test byte [hardware_drive_id], 0x80
   204 000007E9 7508                <1>     jnz .fixed
   205 000007EB BE[F227]            <1>     mov si, msg_hardware_drive_floppy
   206 000007EE E877FA              <1>     call print_string
   207 000007F1 EB06                <1>     jmp .done
   208                              <1> 
   209                              <1> .fixed:
   210 000007F3 BE[0D28]            <1>     mov si, msg_hardware_drive_fixed
   211 000007F6 E86FFA              <1>     call print_string
   212                              <1> 
   213                              <1> .done:
   214 000007F9 5A                  <1>     pop dx
   215 000007FA 59                  <1>     pop cx
   216 000007FB 5B                  <1>     pop bx
   217 000007FC 58                  <1>     pop ax
   218 000007FD C3                  <1>     ret
   219                              <1> 
   220                              <1> hardware_probe_mouse:
   221 000007FE BE[BC27]            <1>     mov si, msg_hardware_mouse_prefix
   222 00000801 E864FA              <1>     call print_string
   223 00000804 E85811              <1>     call mouse_init
   224 00000807 7207                <1>     jc .unavailable
   225 00000809 BE[2C28]            <1>     mov si, msg_hardware_available
   226 0000080C E859FA              <1>     call print_string
   227 0000080F C3                  <1>     ret
   228                              <1> 
   229                              <1> .unavailable:
   230 00000810 BE[3828]            <1>     mov si, msg_hardware_unavailable
   231 00000813 E852FA              <1>     call print_string
   232 00000816 C3                  <1>     ret
   233                              <1> 
   234                              <1> memory_map:
   235 00000817 BE[5028]            <1>     mov si, msg_memory_map_header
   236 0000081A E84BFA              <1>     call print_string
   237                              <1> 
   238 0000081D 31ED                <1>     xor bp, bp
   239 0000081F 6631DB              <1>     xor ebx, ebx
   240                              <1> 
   241                              <1> .next_entry:
   242 00000822 1E                  <1>     push ds
   243 00000823 06                  <1>     push es
   244 00000824 BF[AA4F]            <1>     mov di, e820_buffer
   245 00000827 66B820E80000        <1>     mov eax, 0x0000E820
   246 0000082D 66BA50414D53        <1>     mov edx, 0x534D4150
   247 00000833 66B914000000        <1>     mov ecx, 20
   248 00000839 CD15                <1>     int 0x15
   249 0000083B 07                  <1>     pop es
   250 0000083C 1F                  <1>     pop ds
   251 0000083D 7252                <1>     jc .finish
   252 0000083F 663D50414D53        <1>     cmp eax, 0x534D4150
   253 00000845 754F                <1>     jne .unsupported
   254                              <1> 
   255 00000847 66891E[A64F]        <1>     mov [e820_continuation], ebx
   256 0000084C 45                  <1>     inc bp
   257                              <1> 
   258 0000084D B023                <1>     mov al, '#'
   259 0000084F E821FA              <1>     call print_char
   260 00000852 89E8                <1>     mov ax, bp
   261 00000854 E821FC              <1>     call print_uint_ax
   262 00000857 BE[B228]            <1>     mov si, msg_base
   263 0000085A E80BFA              <1>     call print_string
   264 0000085D BE[AA4F]            <1>     mov si, e820_buffer
   265 00000860 E88AFC              <1>     call print_hex64_from_si
   266 00000863 BE[BB28]            <1>     mov si, msg_length
   267 00000866 E8FFF9              <1>     call print_string
   268 00000869 BE[B24F]            <1>     mov si, e820_buffer + 8
   269 0000086C E87EFC              <1>     call print_hex64_from_si
   270 0000086F BE[C628]            <1>     mov si, msg_type
   271 00000872 E8F3F9              <1>     call print_string
   272 00000875 E861FD              <1>     call print_e820_type
   273 00000878 BE[1637]            <1>     mov si, newline
   274 0000087B E8EAF9              <1>     call print_string
   275                              <1> 
   276 0000087E 668B1E[A64F]        <1>     mov ebx, [e820_continuation]
   277 00000883 6685DB              <1>     test ebx, ebx
   278 00000886 759A                <1>     jne .next_entry
   279 00000888 E81B00              <1>     call build_kernel_safe_memory_ranges
   280 0000088B 720F                <1>     jc .done
   281 0000088D E85401              <1>     call print_kernel_safe_memory_ranges
   282 00000890 C3                  <1>     ret
   283                              <1> 
   284                              <1> .finish:
   285 00000891 83FD00              <1>     cmp bp, 0
   286 00000894 7507                <1>     jne .have_map
   287                              <1> 
   288                              <1> .unsupported:
   289 00000896 BE[6828]            <1>     mov si, msg_memory_map_unavailable
   290 00000899 E8CCF9              <1>     call print_string
   291                              <1> 
   292                              <1> .done:
   293 0000089C C3                  <1>     ret
   294                              <1> 
   295                              <1> .have_map:
   296 0000089D E80600              <1>     call build_kernel_safe_memory_ranges
   297 000008A0 72FA                <1>     jc .done
   298 000008A2 E83F01              <1>     call print_kernel_safe_memory_ranges
   299 000008A5 C3                  <1>     ret
   300                              <1> 
   301                              <1> build_kernel_safe_memory_ranges:
   302 000008A6 50                  <1>     push ax
   303 000008A7 53                  <1>     push bx
   304 000008A8 51                  <1>     push cx
   305 000008A9 52                  <1>     push dx
   306 000008AA 56                  <1>     push si
   307 000008AB 57                  <1>     push di
   308                              <1> 
   309 000008AC C606[E13A]00        <1>     mov byte [safe_range_count], 0
   310 000008B1 6631C0              <1>     xor eax, eax
   311 000008B4 CD12                <1>     int 0x12
   312 000008B6 66C1E00A            <1>     shl eax, 10
   313 000008BA 663D00001000        <1>     cmp eax, LOW_MEMORY_LIMIT
   314 000008C0 7606                <1>     jbe .store_lowmem_top
   315 000008C2 66B800001000        <1>     mov eax, LOW_MEMORY_LIMIT
   316                              <1> 
   317                              <1> .store_lowmem_top:
   318 000008C8 66A3[DD3A]          <1>     mov [kernel_safe_lowmem_top], eax
   319 000008CC 6631DB              <1>     xor ebx, ebx
   320                              <1> 
   321                              <1> .next_entry:
   322 000008CF 1E                  <1>     push ds
   323 000008D0 06                  <1>     push es
   324 000008D1 BF[AA4F]            <1>     mov di, e820_buffer
   325 000008D4 66B820E80000        <1>     mov eax, 0x0000E820
   326 000008DA 66BA50414D53        <1>     mov edx, 0x534D4150
   327 000008E0 66B914000000        <1>     mov ecx, 20
   328 000008E6 CD15                <1>     int 0x15
   329 000008E8 07                  <1>     pop es
   330 000008E9 1F                  <1>     pop ds
   331 000008EA 7241                <1>     jc .bios_done
   332 000008EC 663D50414D53        <1>     cmp eax, 0x534D4150
   333 000008F2 753C                <1>     jne .unsupported
   334                              <1> 
   335 000008F4 66891E[A64F]        <1>     mov [e820_continuation], ebx
   336 000008F9 66833E[BA4F]01      <1>     cmp dword [e820_buffer + 16], 1
   337 000008FF 7522                <1>     jne .advance
   338 00000901 66833E[AE4F]00      <1>     cmp dword [e820_buffer + 4], 0
   339 00000907 751A                <1>     jne .advance
   340 00000909 66833E[B64F]00      <1>     cmp dword [e820_buffer + 12], 0
   341 0000090F 7512                <1>     jne .advance
   342                              <1> 
   343 00000911 668B36[AA4F]        <1>     mov esi, [e820_buffer]
   344 00000916 668B3E[B24F]        <1>     mov edi, [e820_buffer + 8]
   345 0000091B 6601F7              <1>     add edi, esi
   346 0000091E 7203                <1>     jc .advance
   347 00000920 E81500              <1>     call subtract_kernel_reserved_ranges
   348                              <1> 
   349                              <1> .advance:
   350 00000923 668B1E[A64F]        <1>     mov ebx, [e820_continuation]
   351 00000928 6685DB              <1>     test ebx, ebx
   352 0000092B 75A2                <1>     jne .next_entry
   353                              <1> 
   354                              <1> .bios_done:
   355 0000092D F8                  <1>     clc
   356 0000092E EB01                <1>     jmp .exit
   357                              <1> 
   358                              <1> .unsupported:
   359 00000930 F9                  <1>     stc
   360                              <1> 
   361                              <1> .exit:
   362 00000931 5F                  <1>     pop di
   363 00000932 5E                  <1>     pop si
   364 00000933 5A                  <1>     pop dx
   365 00000934 59                  <1>     pop cx
   366 00000935 5B                  <1>     pop bx
   367 00000936 58                  <1>     pop ax
   368 00000937 C3                  <1>     ret
   369                              <1> 
   370                              <1> subtract_kernel_reserved_ranges:
   371 00000938 6639FE              <1>     cmp esi, edi
   372 0000093B 733A                <1>     jae .done
   373                              <1> 
   374 0000093D 6631C0              <1>     xor eax, eax
   375 00000940 66BA00100000        <1>     mov edx, LOW_BIOS_RESERVED_END
   376 00000946 E82F00              <1>     call subtract_reserved_range32
   377 00000949 6639FE              <1>     cmp esi, edi
   378 0000094C 7329                <1>     jae .done
   379                              <1> 
   380 0000094E 66B800700000        <1>     mov eax, PM32_STACK_TOP
   381 00000954 6631D2              <1>     xor edx, edx
   382 00000957 BA[5B7D]            <1>     mov dx, stage2_image_end
   383 0000095A E81B00              <1>     call subtract_reserved_range32
   384 0000095D 6639FE              <1>     cmp esi, edi
   385 00000960 7315                <1>     jae .done
   386                              <1> 
   387 00000962 66A1[DD3A]          <1>     mov eax, [kernel_safe_lowmem_top]
   388 00000966 66BA00001000        <1>     mov edx, LOW_MEMORY_LIMIT
   389 0000096C E80900              <1>     call subtract_reserved_range32
   390 0000096F 6639FE              <1>     cmp esi, edi
   391 00000972 7303                <1>     jae .done
   392                              <1> 
   393 00000974 E84100              <1>     call append_safe_range32
   394                              <1> 
   395                              <1> .done:
   396 00000977 C3                  <1>     ret
   397                              <1> 
   398                              <1> subtract_reserved_range32:
   399 00000978 6639FE              <1>     cmp esi, edi
   400 0000097B 733A                <1>     jae .done
   401 0000097D 6639C7              <1>     cmp edi, eax
   402 00000980 7635                <1>     jbe .done
   403 00000982 6639D6              <1>     cmp esi, edx
   404 00000985 7330                <1>     jae .done
   405 00000987 6639F0              <1>     cmp eax, esi
   406 0000098A 761B                <1>     jbe .clip_front
   407 0000098C 6639FA              <1>     cmp edx, edi
   408 0000098F 731F                <1>     jae .clip_back
   409                              <1> 
   410 00000991 6650                <1>     push eax
   411 00000993 6652                <1>     push edx
   412 00000995 6657                <1>     push edi
   413 00000997 6689C7              <1>     mov edi, eax
   414 0000099A E81B00              <1>     call append_safe_range32
   415 0000099D 665F                <1>     pop edi
   416 0000099F 665A                <1>     pop edx
   417 000009A1 6658                <1>     pop eax
   418 000009A3 6689D6              <1>     mov esi, edx
   419 000009A6 C3                  <1>     ret
   420                              <1> 
   421                              <1> .clip_front:
   422 000009A7 6639FA              <1>     cmp edx, edi
   423 000009AA 7308                <1>     jae .clear
   424 000009AC 6689D6              <1>     mov esi, edx
   425 000009AF C3                  <1>     ret
   426                              <1> 
   427                              <1> .clip_back:
   428 000009B0 6689C7              <1>     mov edi, eax
   429 000009B3 C3                  <1>     ret
   430                              <1> 
   431                              <1> .clear:
   432 000009B4 6689FE              <1>     mov esi, edi
   433                              <1> 
   434                              <1> .done:
   435 000009B7 C3                  <1>     ret
   436                              <1> 
   437                              <1> append_safe_range32:
   438 000009B8 53                  <1>     push bx
   439 000009B9 52                  <1>     push dx
   440                              <1> 
   441 000009BA 6639FE              <1>     cmp esi, edi
   442 000009BD 7322                <1>     jae .done
   443 000009BF 8A1E[E13A]          <1>     mov bl, [safe_range_count]
   444 000009C3 80FB08              <1>     cmp bl, SAFE_RANGE_MAX
   445 000009C6 7319                <1>     jae .done
   446                              <1> 
   447 000009C8 30FF                <1>     xor bh, bh
   448 000009CA C1E302              <1>     shl bx, 2
   449 000009CD 6689B7[E23A]        <1>     mov [safe_range_bases + bx], esi
   450 000009D2 6689FA              <1>     mov edx, edi
   451 000009D5 6629F2              <1>     sub edx, esi
   452 000009D8 668997[023B]        <1>     mov [safe_range_lengths + bx], edx
   453 000009DD FE06[E13A]          <1>     inc byte [safe_range_count]
   454                              <1> 
   455                              <1> .done:
   456 000009E1 5A                  <1>     pop dx
   457 000009E2 5B                  <1>     pop bx
   458 000009E3 C3                  <1>     ret
   459                              <1> 
   460                              <1> print_kernel_safe_memory_ranges:
   461 000009E4 53                  <1>     push bx
   462 000009E5 55                  <1>     push bp
   463 000009E6 57                  <1>     push di
   464 000009E7 56                  <1>     push si
   465 000009E8 6650                <1>     push eax
   466                              <1> 
   467 000009EA BE[8B28]            <1>     mov si, msg_memory_safe_header
   468 000009ED E878F8              <1>     call print_string
   469 000009F0 803E[E13A]00        <1>     cmp byte [safe_range_count], 0
   470 000009F5 7508                <1>     jne .loop_setup
   471 000009F7 BE[A828]            <1>     mov si, msg_memory_safe_none
   472 000009FA E86BF8              <1>     call print_string
   473 000009FD EB4B                <1>     jmp .done
   474                              <1> 
   475                              <1> .loop_setup:
   476 000009FF 31DB                <1>     xor bx, bx
   477 00000A01 31ED                <1>     xor bp, bp
   478                              <1> 
   479                              <1> .loop:
   480 00000A03 3A1E[E13A]          <1>     cmp bl, [safe_range_count]
   481 00000A07 7341                <1>     jae .done
   482                              <1> 
   483 00000A09 45                  <1>     inc bp
   484 00000A0A B023                <1>     mov al, '#'
   485 00000A0C E864F8              <1>     call print_char
   486 00000A0F 89E8                <1>     mov ax, bp
   487 00000A11 E864FA              <1>     call print_uint_ax
   488 00000A14 BE[B228]            <1>     mov si, msg_base
   489 00000A17 E84EF8              <1>     call print_string
   490 00000A1A 6631C0              <1>     xor eax, eax
   491 00000A1D E8A4FA              <1>     call print_hex32_eax
   492 00000A20 89DF                <1>     mov di, bx
   493 00000A22 C1E702              <1>     shl di, 2
   494 00000A25 668B85[E23A]        <1>     mov eax, [safe_range_bases + di]
   495 00000A2A E897FA              <1>     call print_hex32_eax
   496 00000A2D BE[BB28]            <1>     mov si, msg_length
   497 00000A30 E835F8              <1>     call print_string
   498 00000A33 6631C0              <1>     xor eax, eax
   499 00000A36 E88BFA              <1>     call print_hex32_eax
   500 00000A39 668B85[023B]        <1>     mov eax, [safe_range_lengths + di]
   501 00000A3E E883FA              <1>     call print_hex32_eax
   502 00000A41 BE[1637]            <1>     mov si, newline
   503 00000A44 E821F8              <1>     call print_string
   504 00000A47 43                  <1>     inc bx
   505 00000A48 EBB9                <1>     jmp .loop
   506                              <1> 
   507                              <1> .done:
   508 00000A4A 6658                <1>     pop eax
   509 00000A4C 5E                  <1>     pop si
   510 00000A4D 5F                  <1>     pop di
   511 00000A4E 5D                  <1>     pop bp
   512 00000A4F 5B                  <1>     pop bx
   513 00000A50 C3                  <1>     ret
   514                              <1> 
   515                              <1> calculator_program:
   516 00000A51 E85AF7              <1>     call set_text_mode
   517 00000A54 BE[0A29]            <1>     mov si, msg_calc_intro
   518 00000A57 E80EF8              <1>     call print_string
   519                              <1> 
   520                              <1> .loop:
   521 00000A5A BE[6E36]            <1>     mov si, prompt_calc
   522 00000A5D E808F8              <1>     call print_string
   523 00000A60 BF[223B]            <1>     mov di, input_buffer
   524 00000A63 B9FF0F              <1>     mov cx, INPUT_MAX
   525 00000A66 E88EF6              <1>     call read_line
   526 00000A69 BE[223B]            <1>     mov si, input_buffer
   527 00000A6C E886F9              <1>     call skip_spaces
   528 00000A6F 803C00              <1>     cmp byte [si], 0
   529 00000A72 0F84EB00            <1>     je .exit
   530                              <1> 
   531 00000A76 BF[C637]            <1>     mov di, cmd_exit
   532 00000A79 E85EF9              <1>     call streq
   533 00000A7C 3C01                <1>     cmp al, 1
   534 00000A7E 0F84DF00            <1>     je .exit
   535                              <1> 
   536 00000A82 BE[223B]            <1>     mov si, input_buffer
   537 00000A85 E87BF9              <1>     call parse_signed_int
   538 00000A88 0F82BE00            <1>     jc .parse_error
   539 00000A8C A3[944F]            <1>     mov [calc_left], ax
   540                              <1> 
   541 00000A8F E863F9              <1>     call skip_spaces
   542 00000A92 8A04                <1>     mov al, [si]
   543 00000A94 3C2B                <1>     cmp al, '+'
   544 00000A96 7413                <1>     je .have_op
   545 00000A98 3C2D                <1>     cmp al, '-'
   546 00000A9A 740F                <1>     je .have_op
   547 00000A9C 3C2A                <1>     cmp al, '*'
   548 00000A9E 740B                <1>     je .have_op
   549 00000AA0 3C2F                <1>     cmp al, '/'
   550 00000AA2 7407                <1>     je .have_op
   551 00000AA4 3C25                <1>     cmp al, '%'
   552 00000AA6 7403                <1>     je .have_op
   553 00000AA8 E9A400              <1>     jmp .syntax
   554                              <1> 
   555                              <1> .have_op:
   556 00000AAB A2[934F]            <1>     mov [calc_op], al
   557 00000AAE 46                  <1>     inc si
   558 00000AAF E851F9              <1>     call parse_signed_int
   559 00000AB2 0F829400            <1>     jc .parse_error
   560 00000AB6 A3[964F]            <1>     mov [calc_right], ax
   561 00000AB9 E839F9              <1>     call skip_spaces
   562 00000ABC 803C00              <1>     cmp byte [si], 0
   563 00000ABF 0F858C00            <1>     jne .syntax
   564                              <1> 
   565 00000AC3 A1[944F]            <1>     mov ax, [calc_left]
   566 00000AC6 8B1E[964F]          <1>     mov bx, [calc_right]
   567 00000ACA 8A16[934F]          <1>     mov dl, [calc_op]
   568 00000ACE 80FA2B              <1>     cmp dl, '+'
   569 00000AD1 7416                <1>     je .add
   570 00000AD3 80FA2D              <1>     cmp dl, '-'
   571 00000AD6 7417                <1>     je .sub
   572 00000AD8 80FA2A              <1>     cmp dl, '*'
   573 00000ADB 7418                <1>     je .mul
   574 00000ADD 80FA2F              <1>     cmp dl, '/'
   575 00000AE0 7419                <1>     je .div
   576 00000AE2 80FA25              <1>     cmp dl, '%'
   577 00000AE5 7428                <1>     je .mod
   578 00000AE7 EB66                <1>     jmp .syntax
   579                              <1> 
   580                              <1> .add:
   581 00000AE9 01D8                <1>     add ax, bx
   582 00000AEB 706B                <1>     jo .overflow
   583 00000AED EB3A                <1>     jmp .result
   584                              <1> 
   585                              <1> .sub:
   586 00000AEF 29D8                <1>     sub ax, bx
   587 00000AF1 7065                <1>     jo .overflow
   588 00000AF3 EB34                <1>     jmp .result
   589                              <1> 
   590                              <1> .mul:
   591 00000AF5 F7EB                <1>     imul bx
   592 00000AF7 705F                <1>     jo .overflow
   593 00000AF9 EB2E                <1>     jmp .result
   594                              <1> 
   595                              <1> .div:
   596 00000AFB 83FB00              <1>     cmp bx, 0
   597 00000AFE 7441                <1>     je .div_zero
   598 00000B00 3D0080              <1>     cmp ax, 0x8000
   599 00000B03 7505                <1>     jne .div_ready
   600 00000B05 83FBFF              <1>     cmp bx, -1
   601 00000B08 744E                <1>     je .overflow
   602                              <1> .div_ready:
   603 00000B0A 99                  <1>     cwd
   604 00000B0B F7FB                <1>     idiv bx
   605 00000B0D EB1A                <1>     jmp .result
   606                              <1> 
   607                              <1> .mod:
   608 00000B0F 83FB00              <1>     cmp bx, 0
   609 00000B12 742D                <1>     je .div_zero
   610 00000B14 3D0080              <1>     cmp ax, 0x8000
   611 00000B17 7509                <1>     jne .mod_ready
   612 00000B19 83FBFF              <1>     cmp bx, -1
   613 00000B1C 7504                <1>     jne .mod_ready
   614 00000B1E 31C0                <1>     xor ax, ax
   615 00000B20 EB07                <1>     jmp .result
   616                              <1> .mod_ready:
   617 00000B22 99                  <1>     cwd
   618 00000B23 F7FB                <1>     idiv bx
   619 00000B25 89D0                <1>     mov ax, dx
   620 00000B27 EB00                <1>     jmp .result
   621                              <1> 
   622                              <1> .result:
   623 00000B29 A3[984F]            <1>     mov [calc_result], ax
   624 00000B2C BE[5C29]            <1>     mov si, msg_calc_result
   625 00000B2F E836F7              <1>     call print_string
   626 00000B32 A1[984F]            <1>     mov ax, [calc_result]
   627 00000B35 E86FF9              <1>     call print_int_ax
   628 00000B38 BE[1637]            <1>     mov si, newline
   629 00000B3B E82AF7              <1>     call print_string
   630 00000B3E E919FF              <1>     jmp .loop
   631                              <1> 
   632                              <1> .div_zero:
   633 00000B41 BE[5F29]            <1>     mov si, msg_calc_div_zero
   634 00000B44 E821F7              <1>     call print_string
   635 00000B47 E910FF              <1>     jmp .loop
   636                              <1> 
   637                              <1> .parse_error:
   638 00000B4A 83F801              <1>     cmp ax, 1
   639 00000B4D 7409                <1>     je .overflow
   640                              <1> 
   641                              <1> .syntax:
   642 00000B4F BE[A329]            <1>     mov si, msg_calc_syntax
   643 00000B52 E813F7              <1>     call print_string
   644 00000B55 E902FF              <1>     jmp .loop
   645                              <1> 
   646                              <1> .overflow:
   647 00000B58 BE[7229]            <1>     mov si, msg_calc_overflow
   648 00000B5B E80AF7              <1>     call print_string
   649 00000B5E E9F9FE              <1>     jmp .loop
   650                              <1> 
   651                              <1> .exit:
   652 00000B61 BE[DC29]            <1>     mov si, msg_calc_exit
   653 00000B64 E801F7              <1>     call print_string
   654 00000B67 C3                  <1>     ret
   655                              <1> 
   656                              <1> chat_program:
   657 00000B68 E843F6              <1>     call set_text_mode
   658 00000B6B C606[A938]00        <1>     mov byte [chat_session_active], 0
   659 00000B70 C606[BB38]00        <1>     mov byte [chat_loop_active], 0
   660 00000B75 C606[BC38]00        <1>     mov byte [chat_loop_steps], 0
   661 00000B7A C606[BA38]01        <1>     mov byte [chat_fresh_needed], 1
   662 00000B7F BE[F829]            <1>     mov si, msg_chat_intro
   663 00000B82 E8E3F6              <1>     call print_string
   664                              <1> 
   665                              <1> .loop:
   666 00000B85 BE[7536]            <1>     mov si, prompt_chat
   667 00000B88 E8DDF6              <1>     call print_string
   668 00000B8B BF[223B]            <1>     mov di, input_buffer
   669 00000B8E B9FF0F              <1>     mov cx, INPUT_MAX
   670 00000B91 E863F5              <1>     call read_line
   671 00000B94 803E[223B]00        <1>     cmp byte [input_buffer], 0
   672 00000B99 741E                <1>     je .exit
   673                              <1> 
   674 00000B9B BE[223B]            <1>     mov si, input_buffer
   675 00000B9E BF[C637]            <1>     mov di, cmd_exit
   676 00000BA1 E836F8              <1>     call streq
   677 00000BA4 3C01                <1>     cmp al, 1
   678 00000BA6 7411                <1>     je .exit
   679                              <1> 
   680 00000BA8 E8D000              <1>     call chat_prepare_fresh_session
   681 00000BAB BE[6A2A]            <1>     mov si, msg_chat_wait
   682 00000BAE E8B7F6              <1>     call print_string
   683 00000BB1 E83000              <1>     call chat_send_request
   684 00000BB4 E86D00              <1>     call chat_handle_response
   685 00000BB7 EBCC                <1>     jmp .loop
   686                              <1> 
   687                              <1> .exit:
   688 00000BB9 803E[A938]01        <1>     cmp byte [chat_session_active], 1
   689 00000BBE 7509                <1>     jne .clear
   690 00000BC0 BE[AA38]            <1>     mov si, chat_session_buffer
   691 00000BC3 E8680C              <1>     call host_send_retire_named
   692 00000BC6 E807F8              <1>     call host_read_response_silent
   693                              <1> 
   694                              <1> .clear:
   695 00000BC9 C606[A938]00        <1>     mov byte [chat_session_active], 0
   696 00000BCE C606[BB38]00        <1>     mov byte [chat_loop_active], 0
   697 00000BD3 C606[BC38]00        <1>     mov byte [chat_loop_steps], 0
   698 00000BD8 C606[BA38]00        <1>     mov byte [chat_fresh_needed], 0
   699 00000BDD BE[6B2B]            <1>     mov si, msg_chat_exit
   700 00000BE0 E885F6              <1>     call print_string
   701 00000BE3 C3                  <1>     ret
   702                              <1> 
   703                              <1> chat_send_request:
   704 00000BE4 BE[7A2B]            <1>     mov si, msg_chat_post_prefix
   705 00000BE7 E8E3F6              <1>     call serial_write_string
   706 00000BEA BE[AA38]            <1>     mov si, chat_session_buffer
   707 00000BED E810F7              <1>     call serial_write_json_escaped
   708 00000BF0 BE[922B]            <1>     mov si, msg_chat_post_mid
   709 00000BF3 E8D7F6              <1>     call serial_write_string
   710 00000BF6 BE[223B]            <1>     mov si, input_buffer
   711 00000BF9 E804F7              <1>     call serial_write_json_escaped
   712 00000BFC BE[FE34]            <1>     mov si, msg_json_quote
   713 00000BFF E8CBF6              <1>     call serial_write_string
   714 00000C02 E8BAF9              <1>     call serial_write_generation_field
   715 00000C05 803E[BA38]01        <1>     cmp byte [chat_fresh_needed], 1
   716 00000C0A 7506                <1>     jne .close
   717 00000C0C BE[9F2B]            <1>     mov si, msg_chat_post_fresh
   718 00000C0F E8BBF6              <1>     call serial_write_string
   719                              <1> 
   720                              <1> .close:
   721 00000C12 BE[0035]            <1>     mov si, msg_json_close
   722 00000C15 E8B5F6              <1>     call serial_write_string
   723 00000C18 BE[1637]            <1>     mov si, newline
   724 00000C1B E8AFF6              <1>     call serial_write_string
   725 00000C1E C606[BA38]00        <1>     mov byte [chat_fresh_needed], 0
   726 00000C23 C3                  <1>     ret
   727                              <1> 
   728                              <1> chat_handle_response:
   729 00000C24 E86609              <1>     call host_read_response
   730 00000C27 803E[BB38]01        <1>     cmp byte [chat_loop_active], 1
   731 00000C2C 751E                <1>     jne .done
   732                              <1> 
   733                              <1> .loop_continue:
   734 00000C2E A0[BC38]            <1>     mov al, [chat_loop_steps]
   735 00000C31 3C08                <1>     cmp al, CHAT_LOOP_MAX_STEPS
   736 00000C33 7318                <1>     jae .loop_limit
   737 00000C35 FE06[BC38]          <1>     inc byte [chat_loop_steps]
   738 00000C39 BE[892A]            <1>     mov si, msg_chat_loop_wait
   739 00000C3C E829F6              <1>     call print_string
   740 00000C3F E81700              <1>     call chat_send_loop_request
   741 00000C42 E84809              <1>     call host_read_response
   742 00000C45 803E[BB38]01        <1>     cmp byte [chat_loop_active], 1
   743 00000C4A 74E2                <1>     je .loop_continue
   744                              <1> 
   745                              <1> .done:
   746 00000C4C C3                  <1>     ret
   747                              <1> 
   748                              <1> .loop_limit:
   749 00000C4D C606[BB38]00        <1>     mov byte [chat_loop_active], 0
   750 00000C52 BE[262B]            <1>     mov si, msg_chat_loop_limit
   751 00000C55 E810F6              <1>     call print_string
   752 00000C58 C3                  <1>     ret
   753                              <1> 
   754                              <1> chat_send_loop_request:
   755 00000C59 BE[B22B]            <1>     mov si, msg_chat_loop_post_prefix
   756 00000C5C E86EF6              <1>     call serial_write_string
   757 00000C5F BE[AA38]            <1>     mov si, chat_session_buffer
   758 00000C62 E89BF6              <1>     call serial_write_json_escaped
   759 00000C65 BE[CA2B]            <1>     mov si, msg_chat_loop_post_mid
   760 00000C68 E862F6              <1>     call serial_write_string
   761 00000C6B E851F9              <1>     call serial_write_generation_field
   762 00000C6E BE[0035]            <1>     mov si, msg_json_close
   763 00000C71 E859F6              <1>     call serial_write_string
   764 00000C74 BE[1637]            <1>     mov si, newline
   765 00000C77 E853F6              <1>     call serial_write_string
   766 00000C7A C3                  <1>     ret
   767                              <1> 
   768                              <1> chat_prepare_fresh_session:
   769 00000C7B 803E[A938]01        <1>     cmp byte [chat_session_active], 1
   770 00000C80 7501                <1>     jne .allocate
   771 00000C82 C3                  <1>     ret
   772                              <1> 
   773                              <1> .allocate:
   774 00000C83 66FF06[A538]        <1>     inc dword [chat_session_counter]
   775 00000C88 BF[AA38]            <1>     mov di, chat_session_buffer
   776 00000C8B B91000              <1>     mov cx, CHAT_SESSION_SIZE
   777 00000C8E 30C0                <1>     xor al, al
   778 00000C90 F3AA                <1>     rep stosb
   779 00000C92 BF[AA38]            <1>     mov di, chat_session_buffer
   780 00000C95 B063                <1>     mov al, 'c'
   781 00000C97 8805                <1>     mov [di], al
   782 00000C99 47                  <1>     inc di
   783 00000C9A B068                <1>     mov al, 'h'
   784 00000C9C 8805                <1>     mov [di], al
   785 00000C9E 47                  <1>     inc di
   786 00000C9F B061                <1>     mov al, 'a'
   787 00000CA1 8805                <1>     mov [di], al
   788 00000CA3 47                  <1>     inc di
   789 00000CA4 B074                <1>     mov al, 't'
   790 00000CA6 8805                <1>     mov [di], al
   791 00000CA8 47                  <1>     inc di
   792 00000CA9 B02D                <1>     mov al, '-'
   793 00000CAB 8805                <1>     mov [di], al
   794 00000CAD 47                  <1>     inc di
   795 00000CAE 66A1[A538]          <1>     mov eax, [chat_session_counter]
   796 00000CB2 E8A6F6              <1>     call write_hex32_buffer_eax
   797 00000CB5 C60500              <1>     mov byte [di], 0
   798 00000CB8 C606[A938]01        <1>     mov byte [chat_session_active], 1
   799 00000CBD C606[BB38]00        <1>     mov byte [chat_loop_active], 0
   800 00000CC2 C606[BC38]00        <1>     mov byte [chat_loop_steps], 0
   801 00000CC7 C606[BA38]01        <1>     mov byte [chat_fresh_needed], 1
   802 00000CCC C3                  <1>     ret
   803                              <1> 
   804                              <1> curl_program:
   805 00000CCD E8DEF4              <1>     call set_text_mode
   806 00000CD0 BE[812C]            <1>     mov si, msg_curl_intro
   807 00000CD3 E892F5              <1>     call print_string
   808                              <1> 
   809                              <1> .loop:
   810 00000CD6 BE[7C36]            <1>     mov si, prompt_curl
   811 00000CD9 E88CF5              <1>     call print_string
   812 00000CDC BF[FA4B]            <1>     mov di, task_arg_buffer
   813 00000CDF B99F00              <1>     mov cx, TASK_GOAL_SIZE - 1
   814 00000CE2 E812F4              <1>     call read_line
   815 00000CE5 803E[FA4B]00        <1>     cmp byte [task_arg_buffer], 0
   816 00000CEA 741B                <1>     je .exit
   817                              <1> 
   818 00000CEC BE[FA4B]            <1>     mov si, task_arg_buffer
   819 00000CEF BF[C637]            <1>     mov di, cmd_exit
   820 00000CF2 E8E5F6              <1>     call streq
   821 00000CF5 3C01                <1>     cmp al, 1
   822 00000CF7 740E                <1>     je .exit
   823                              <1> 
   824 00000CF9 BE[CA2C]            <1>     mov si, msg_curl_wait
   825 00000CFC E869F5              <1>     call print_string
   826 00000CFF E88D0B              <1>     call host_send_curl_request
   827 00000D02 E88808              <1>     call host_read_response
   828 00000D05 EBCF                <1>     jmp .loop
   829                              <1> 
   830                              <1> .exit:
   831 00000D07 BE[E32C]            <1>     mov si, msg_curl_exit
   832 00000D0A E85BF5              <1>     call print_string
   833 00000D0D C3                  <1>     ret
   834                              <1> 
   835                              <1> hostreq_program:
   836 00000D0E E89DF4              <1>     call set_text_mode
   837 00000D11 BE[E42D]            <1>     mov si, msg_hostreq_intro
   838 00000D14 E851F5              <1>     call print_string
   839                              <1> 
   840 00000D17 BE[8236]            <1>     mov si, prompt_host_action
   841 00000D1A E84BF5              <1>     call print_string
   842 00000D1D BF[224B]            <1>     mov di, host_action_buffer
   843 00000D20 B91700              <1>     mov cx, HOST_ACTION_SIZE - 1
   844 00000D23 E8D1F3              <1>     call read_line
   845 00000D26 803E[224B]00        <1>     cmp byte [host_action_buffer], 0
   846 00000D2B 0F842001            <1>     je .exit
   847                              <1> 
   848 00000D2F BE[224B]            <1>     mov si, host_action_buffer
   849 00000D32 BF[4638]            <1>     mov di, action_list_sessions
   850 00000D35 E8A2F6              <1>     call streq
   851 00000D38 3C01                <1>     cmp al, 1
   852 00000D3A 745D                <1>     je .do_list
   853                              <1> 
   854 00000D3C BE[224B]            <1>     mov si, host_action_buffer
   855 00000D3F BF[5438]            <1>     mov di, action_spawn_session
   856 00000D42 E895F6              <1>     call streq
   857 00000D45 3C01                <1>     cmp al, 1
   858 00000D47 7457                <1>     je .do_spawn
   859                              <1> 
   860 00000D49 BE[224B]            <1>     mov si, host_action_buffer
   861 00000D4C BF[6238]            <1>     mov di, action_clone_session
   862 00000D4F E888F6              <1>     call streq
   863 00000D52 3C01                <1>     cmp al, 1
   864 00000D54 7467                <1>     je .do_clone
   865                              <1> 
   866 00000D56 BE[224B]            <1>     mov si, host_action_buffer
   867 00000D59 BF[7038]            <1>     mov di, action_retire_session
   868 00000D5C E87BF6              <1>     call streq
   869 00000D5F 3C01                <1>     cmp al, 1
   870 00000D61 0F848B00            <1>     je .do_retire
   871                              <1> 
   872 00000D65 BE[224B]            <1>     mov si, host_action_buffer
   873 00000D68 BF[7F38]            <1>     mov di, action_step_session
   874 00000D6B E86CF6              <1>     call streq
   875 00000D6E 3C01                <1>     cmp al, 1
   876 00000D70 0F848800            <1>     je .do_step
   877                              <1> 
   878 00000D74 BE[224B]            <1>     mov si, host_action_buffer
   879 00000D77 BF[8C38]            <1>     mov di, action_adopt_style
   880 00000D7A E85DF6              <1>     call streq
   881 00000D7D 3C01                <1>     cmp al, 1
   882 00000D7F 0F849400            <1>     je .do_adopt
   883                              <1> 
   884 00000D83 BE[224B]            <1>     mov si, host_action_buffer
   885 00000D86 BF[9838]            <1>     mov di, action_git_sync
   886 00000D89 E84EF6              <1>     call streq
   887 00000D8C 3C01                <1>     cmp al, 1
   888 00000D8E 0F84B600            <1>     je .do_git_sync
   889                              <1> 
   890 00000D92 BE[212E]            <1>     mov si, msg_hostreq_unknown
   891 00000D95 E8D0F4              <1>     call print_string
   892 00000D98 C3                  <1>     ret
   893                              <1> 
   894                              <1> .do_list:
   895 00000D99 E8110A              <1>     call host_send_list_request
   896 00000D9C E8EE07              <1>     call host_read_response
   897 00000D9F C3                  <1>     ret
   898                              <1> 
   899                              <1> .do_spawn:
   900 00000DA0 E80202              <1>     call prompt_task_identity
   901 00000DA3 0F82A800            <1>     jc .exit
   902 00000DA7 BE[9A36]            <1>     mov si, prompt_task_goal
   903 00000DAA E8BBF4              <1>     call print_string
   904 00000DAD BF[5A4B]            <1>     mov di, task_goal_buffer
   905 00000DB0 B99F00              <1>     mov cx, TASK_GOAL_SIZE - 1
   906 00000DB3 E841F3              <1>     call read_line
   907 00000DB6 E8130A              <1>     call host_send_spawn_request
   908 00000DB9 E8D107              <1>     call host_read_response
   909 00000DBC C3                  <1>     ret
   910                              <1> 
   911                              <1> .do_clone:
   912 00000DBD E8E501              <1>     call prompt_task_identity
   913 00000DC0 0F828B00            <1>     jc .exit
   914 00000DC4 BE[A136]            <1>     mov si, prompt_task_source
   915 00000DC7 E89EF4              <1>     call print_string
   916 00000DCA BF[4A4B]            <1>     mov di, task_source_buffer
   917 00000DCD B90F00              <1>     mov cx, TASK_NAME_SIZE - 1
   918 00000DD0 E824F3              <1>     call read_line
   919 00000DD3 803E[4A4B]00        <1>     cmp byte [task_source_buffer], 0
   920 00000DD8 7475                <1>     je .exit
   921 00000DDA BE[D636]            <1>     mov si, prompt_host_modifier
   922 00000DDD E888F4              <1>     call print_string
   923 00000DE0 BF[FA4B]            <1>     mov di, task_arg_buffer
   924 00000DE3 B99F00              <1>     mov cx, TASK_GOAL_SIZE - 1
   925 00000DE6 E80EF3              <1>     call read_line
   926 00000DE9 E8ED0A              <1>     call host_send_clone_request
   927 00000DEC E89E07              <1>     call host_read_response
   928 00000DEF C3                  <1>     ret
   929                              <1> 
   930                              <1> .do_retire:
   931 00000DF0 E8B201              <1>     call prompt_task_identity
   932 00000DF3 725A                <1>     jc .exit
   933 00000DF5 E80B0A              <1>     call host_send_retire_request
   934 00000DF8 E89207              <1>     call host_read_response
   935 00000DFB C3                  <1>     ret
   936                              <1> 
   937                              <1> .do_step:
   938 00000DFC E8A601              <1>     call prompt_task_identity
   939 00000DFF 724E                <1>     jc .exit
   940 00000E01 BE[CD36]            <1>     mov si, prompt_host_prompt
   941 00000E04 E861F4              <1>     call print_string
   942 00000E07 BF[FA4B]            <1>     mov di, task_arg_buffer
   943 00000E0A B99F00              <1>     mov cx, TASK_GOAL_SIZE - 1
   944 00000E0D E8E7F2              <1>     call read_line
   945 00000E10 E8450A              <1>     call host_send_step_request
   946 00000E13 E87707              <1>     call host_read_response
   947 00000E16 C3                  <1>     ret
   948                              <1> 
   949                              <1> .do_adopt:
   950 00000E17 E88B01              <1>     call prompt_task_identity
   951 00000E1A 7233                <1>     jc .exit
   952 00000E1C BE[A136]            <1>     mov si, prompt_task_source
   953 00000E1F E846F4              <1>     call print_string
   954 00000E22 BF[4A4B]            <1>     mov di, task_source_buffer
   955 00000E25 B90F00              <1>     mov cx, TASK_NAME_SIZE - 1
   956 00000E28 E8CCF2              <1>     call read_line
   957 00000E2B 803E[4A4B]00        <1>     cmp byte [task_source_buffer], 0
   958 00000E30 741D                <1>     je .exit
   959 00000E32 BE[D636]            <1>     mov si, prompt_host_modifier
   960 00000E35 E830F4              <1>     call print_string
   961 00000E38 BF[FA4B]            <1>     mov di, task_arg_buffer
   962 00000E3B B99F00              <1>     mov cx, TASK_GOAL_SIZE - 1
   963 00000E3E E8B6F2              <1>     call read_line
   964 00000E41 E8D80A              <1>     call host_send_adopt_request
   965 00000E44 E84607              <1>     call host_read_response
   966 00000E47 C3                  <1>     ret
   967                              <1> 
   968                              <1> .do_git_sync:
   969 00000E48 E86F0A              <1>     call host_send_git_sync_request
   970 00000E4B E83F07              <1>     call host_read_response
   971 00000E4E C3                  <1>     ret
   972                              <1> 
   973                              <1> .exit:
   974 00000E4F BE[372E]            <1>     mov si, msg_hostreq_exit
   975 00000E52 E813F4              <1>     call print_string
   976 00000E55 C3                  <1>     ret
   977                              <1> 
   978                              <1> task_spawn_program:
   979 00000E56 E855F3              <1>     call set_text_mode
   980 00000E59 BE[492E]            <1>     mov si, msg_task_spawn_intro
   981 00000E5C E809F4              <1>     call print_string
   982 00000E5F E84301              <1>     call prompt_task_identity
   983 00000E62 725C                <1>     jc .exit
   984                              <1> 
   985 00000E64 BE[3A4B]            <1>     mov si, task_session_buffer
   986 00000E67 E86A01              <1>     call task_find_slot
   987 00000E6A 7344                <1>     jnc .exists
   988                              <1> 
   989 00000E6C E85001              <1>     call task_alloc_slot
   990 00000E6F 7246                <1>     jc .full
   991 00000E71 53                  <1>     push bx
   992                              <1> 
   993 00000E72 BE[9A36]            <1>     mov si, prompt_task_goal
   994 00000E75 E8F0F3              <1>     call print_string
   995 00000E78 BF[5A4B]            <1>     mov di, task_goal_buffer
   996 00000E7B B99F00              <1>     mov cx, TASK_GOAL_SIZE - 1
   997 00000E7E E876F2              <1>     call read_line
   998                              <1> 
   999 00000E81 E84809              <1>     call host_send_spawn_request
  1000 00000E84 E80607              <1>     call host_read_response
  1001 00000E87 3C01                <1>     cmp al, 1
  1002 00000E89 7433                <1>     je .host_error
  1003                              <1> 
  1004 00000E8B 5B                  <1>     pop bx
  1005 00000E8C C687[9A4C]01        <1>     mov byte [task_active + bx], 1
  1006 00000E91 BE[3A4B]            <1>     mov si, task_session_buffer
  1007 00000E94 E85F01              <1>     call task_name_ptr
  1008 00000E97 B90F00              <1>     mov cx, TASK_NAME_SIZE - 1
  1009 00000E9A E82C04              <1>     call copy_capped_string
  1010 00000E9D BE[5A4B]            <1>     mov si, task_goal_buffer
  1011 00000EA0 E86001              <1>     call task_goal_ptr
  1012 00000EA3 B99F00              <1>     mov cx, TASK_GOAL_SIZE - 1
  1013 00000EA6 E82004              <1>     call copy_capped_string
  1014 00000EA9 BE[762F]            <1>     mov si, msg_task_spawned
  1015 00000EAC E8B9F3              <1>     call print_string
  1016 00000EAF C3                  <1>     ret
  1017                              <1> 
  1018                              <1> .exists:
  1019 00000EB0 BE[362F]            <1>     mov si, msg_task_exists
  1020 00000EB3 E8B2F3              <1>     call print_string
  1021 00000EB6 C3                  <1>     ret
  1022                              <1> 
  1023                              <1> .full:
  1024 00000EB7 BE[542F]            <1>     mov si, msg_task_full
  1025 00000EBA E8ABF3              <1>     call print_string
  1026 00000EBD C3                  <1>     ret
  1027                              <1> 
  1028                              <1> .host_error:
  1029 00000EBE 5B                  <1>     pop bx
  1030 00000EBF C3                  <1>     ret
  1031                              <1> 
  1032                              <1> .exit:
  1033 00000EC0 BE[1F2F]            <1>     mov si, msg_task_abort
  1034 00000EC3 E8A2F3              <1>     call print_string
  1035 00000EC6 C3                  <1>     ret
  1036                              <1> 
  1037                              <1> task_list_program:
  1038 00000EC7 E8E4F2              <1>     call set_text_mode
  1039 00000ECA BE[8F2E]            <1>     mov si, msg_task_list_intro
  1040 00000ECD E898F3              <1>     call print_string
  1041 00000ED0 31DB                <1>     xor bx, bx
  1042 00000ED2 31D2                <1>     xor dx, dx
  1043                              <1> 
  1044                              <1> .loop:
  1045 00000ED4 83FB04              <1>     cmp bx, TASK_SLOT_COUNT
  1046 00000ED7 7338                <1>     jae .done_local
  1047 00000ED9 80BF[9A4C]00        <1>     cmp byte [task_active + bx], 0
  1048 00000EDE 742E                <1>     je .next
  1049 00000EE0 42                  <1>     inc dx
  1050 00000EE1 B023                <1>     mov al, '#'
  1051 00000EE3 E88DF3              <1>     call print_char
  1052 00000EE6 89D8                <1>     mov ax, bx
  1053 00000EE8 40                  <1>     inc ax
  1054 00000EE9 E88CF5              <1>     call print_uint_ax
  1055 00000EEC BE[ED2F]            <1>     mov si, msg_task_name_prefix
  1056 00000EEF E876F3              <1>     call print_string
  1057 00000EF2 E80101              <1>     call task_name_ptr
  1058 00000EF5 89FE                <1>     mov si, di
  1059 00000EF7 E86EF3              <1>     call print_string
  1060 00000EFA BE[F42F]            <1>     mov si, msg_task_goal_prefix
  1061 00000EFD E868F3              <1>     call print_string
  1062 00000F00 E80001              <1>     call task_goal_ptr
  1063 00000F03 89FE                <1>     mov si, di
  1064 00000F05 E860F3              <1>     call print_string
  1065 00000F08 BE[1637]            <1>     mov si, newline
  1066 00000F0B E85AF3              <1>     call print_string
  1067                              <1> 
  1068                              <1> .next:
  1069 00000F0E 43                  <1>     inc bx
  1070 00000F0F EBC3                <1>     jmp .loop
  1071                              <1> 
  1072                              <1> .done_local:
  1073 00000F11 85D2                <1>     test dx, dx
  1074 00000F13 7506                <1>     jnz .host
  1075 00000F15 BE[CC2F]            <1>     mov si, msg_task_none
  1076 00000F18 E84DF3              <1>     call print_string
  1077                              <1> 
  1078                              <1> .host:
  1079 00000F1B BE[DD2F]            <1>     mov si, msg_task_host_summary
  1080 00000F1E E847F3              <1>     call print_string
  1081 00000F21 E88908              <1>     call host_send_list_request
  1082 00000F24 E86606              <1>     call host_read_response
  1083 00000F27 C3                  <1>     ret
  1084                              <1> 
  1085                              <1> task_retire_program:
  1086 00000F28 E883F2              <1>     call set_text_mode
  1087 00000F2B BE[A92E]            <1>     mov si, msg_task_retire_intro
  1088 00000F2E E837F3              <1>     call print_string
  1089 00000F31 E87100              <1>     call prompt_task_identity
  1090 00000F34 7223                <1>     jc .exit
  1091                              <1> 
  1092 00000F36 BE[3A4B]            <1>     mov si, task_session_buffer
  1093 00000F39 E89800              <1>     call task_find_slot
  1094 00000F3C 9C                  <1>     pushf
  1095 00000F3D 53                  <1>     push bx
  1096 00000F3E E8C208              <1>     call host_send_retire_request
  1097 00000F41 E84906              <1>     call host_read_response
  1098 00000F44 3C01                <1>     cmp al, 1
  1099 00000F46 740E                <1>     je .done
  1100 00000F48 5B                  <1>     pop bx
  1101 00000F49 9D                  <1>     popf
  1102 00000F4A 720A                <1>     jc .done
  1103 00000F4C E8C100              <1>     call task_clear_slot
  1104 00000F4F BE[AC2F]            <1>     mov si, msg_task_retired
  1105 00000F52 E813F3              <1>     call print_string
  1106 00000F55 C3                  <1>     ret
  1107                              <1> 
  1108                              <1> .done:
  1109 00000F56 5B                  <1>     pop bx
  1110 00000F57 9D                  <1>     popf
  1111 00000F58 C3                  <1>     ret
  1112                              <1> 
  1113                              <1> .exit:
  1114 00000F59 BE[1F2F]            <1>     mov si, msg_task_abort
  1115 00000F5C E809F3              <1>     call print_string
  1116 00000F5F C3                  <1>     ret
  1117                              <1> 
  1118                              <1> task_step_program:
  1119 00000F60 E84BF2              <1>     call set_text_mode
  1120 00000F63 BE[DC2E]            <1>     mov si, msg_task_step_intro
  1121 00000F66 E8FFF2              <1>     call print_string
  1122 00000F69 E83900              <1>     call prompt_task_identity
  1123 00000F6C 7230                <1>     jc .exit
  1124 00000F6E BE[3A4B]            <1>     mov si, task_session_buffer
  1125 00000F71 E86000              <1>     call task_find_slot
  1126 00000F74 7221                <1>     jc .missing
  1127                              <1> 
  1128 00000F76 BE[CD36]            <1>     mov si, prompt_host_prompt
  1129 00000F79 E8ECF2              <1>     call print_string
  1130 00000F7C BF[FA4B]            <1>     mov di, task_arg_buffer
  1131 00000F7F B99F00              <1>     mov cx, TASK_GOAL_SIZE - 1
  1132 00000F82 E872F1              <1>     call read_line
  1133 00000F85 E8D008              <1>     call host_send_step_request
  1134 00000F88 E80206              <1>     call host_read_response
  1135 00000F8B 3C02                <1>     cmp al, 2
  1136 00000F8D 7407                <1>     je .done
  1137 00000F8F 3C01                <1>     cmp al, 1
  1138 00000F91 7403                <1>     je .done
  1139 00000F93 E80AF6              <1>     call bump_generation
  1140                              <1> .done:
  1141 00000F96 C3                  <1>     ret
  1142                              <1> 
  1143                              <1> .missing:
  1144 00000F97 BE[8C2F]            <1>     mov si, msg_task_missing
  1145 00000F9A E8CBF2              <1>     call print_string
  1146 00000F9D C3                  <1>     ret
  1147                              <1> 
  1148                              <1> .exit:
  1149 00000F9E BE[1F2F]            <1>     mov si, msg_task_abort
  1150 00000FA1 E8C4F2              <1>     call print_string
  1151 00000FA4 C3                  <1>     ret
  1152                              <1> 
  1153                              <1> prompt_task_identity:
  1154 00000FA5 BE[9036]            <1>     mov si, prompt_task_session
  1155 00000FA8 E8BDF2              <1>     call print_string
  1156 00000FAB BF[3A4B]            <1>     mov di, task_session_buffer
  1157 00000FAE B90F00              <1>     mov cx, TASK_NAME_SIZE - 1
  1158 00000FB1 E843F1              <1>     call read_line
  1159 00000FB4 803E[3A4B]00        <1>     cmp byte [task_session_buffer], 0
  1160 00000FB9 7502                <1>     jne .ok
  1161 00000FBB F9                  <1>     stc
  1162 00000FBC C3                  <1>     ret
  1163                              <1> 
  1164                              <1> .ok:
  1165 00000FBD F8                  <1>     clc
  1166 00000FBE C3                  <1>     ret
  1167                              <1> 
  1168                              <1> task_alloc_slot:
  1169 00000FBF 31DB                <1>     xor bx, bx
  1170                              <1> 
  1171                              <1> .loop:
  1172 00000FC1 83FB04              <1>     cmp bx, TASK_SLOT_COUNT
  1173 00000FC4 730C                <1>     jae .full
  1174 00000FC6 80BF[9A4C]00        <1>     cmp byte [task_active + bx], 0
  1175 00000FCB 7403                <1>     je .found
  1176 00000FCD 43                  <1>     inc bx
  1177 00000FCE EBF1                <1>     jmp .loop
  1178                              <1> 
  1179                              <1> .found:
  1180 00000FD0 F8                  <1>     clc
  1181 00000FD1 C3                  <1>     ret
  1182                              <1> 
  1183                              <1> .full:
  1184 00000FD2 F9                  <1>     stc
  1185 00000FD3 C3                  <1>     ret
  1186                              <1> 
  1187                              <1> task_find_slot:
  1188 00000FD4 57                  <1>     push di
  1189 00000FD5 31DB                <1>     xor bx, bx
  1190                              <1> 
  1191                              <1> .loop:
  1192 00000FD7 83FB04              <1>     cmp bx, TASK_SLOT_COUNT
  1193 00000FDA 7317                <1>     jae .missing
  1194 00000FDC 80BF[9A4C]00        <1>     cmp byte [task_active + bx], 0
  1195 00000FE1 740A                <1>     je .next
  1196 00000FE3 E81000              <1>     call task_name_ptr
  1197 00000FE6 E8F1F3              <1>     call streq
  1198 00000FE9 3C01                <1>     cmp al, 1
  1199 00000FEB 7403                <1>     je .found
  1200                              <1> 
  1201                              <1> .next:
  1202 00000FED 43                  <1>     inc bx
  1203 00000FEE EBE7                <1>     jmp .loop
  1204                              <1> 
  1205                              <1> .found:
  1206 00000FF0 5F                  <1>     pop di
  1207 00000FF1 F8                  <1>     clc
  1208 00000FF2 C3                  <1>     ret
  1209                              <1> 
  1210                              <1> .missing:
  1211 00000FF3 5F                  <1>     pop di
  1212 00000FF4 F9                  <1>     stc
  1213 00000FF5 C3                  <1>     ret
  1214                              <1> 
  1215                              <1> task_name_ptr:
  1216 00000FF6 50                  <1>     push ax
  1217 00000FF7 BF[9E4C]            <1>     mov di, task_names
  1218 00000FFA 89D8                <1>     mov ax, bx
  1219 00000FFC C1E004              <1>     shl ax, 4
  1220 00000FFF 01C7                <1>     add di, ax
  1221 00001001 58                  <1>     pop ax
  1222 00001002 C3                  <1>     ret
  1223                              <1> 
  1224                              <1> task_goal_ptr:
  1225 00001003 50                  <1>     push ax
  1226 00001004 BF[DE4C]            <1>     mov di, task_goals
  1227 00001007 89D8                <1>     mov ax, bx
  1228 00001009 C1E006              <1>     shl ax, 6
  1229 0000100C 01C7                <1>     add di, ax
  1230 0000100E 58                  <1>     pop ax
  1231 0000100F C3                  <1>     ret
  1232                              <1> 
  1233                              <1> task_clear_slot:
  1234 00001010 C687[9A4C]00        <1>     mov byte [task_active + bx], 0
  1235 00001015 E8DEFF              <1>     call task_name_ptr
  1236 00001018 C60500              <1>     mov byte [di], 0
  1237 0000101B E8E5FF              <1>     call task_goal_ptr
  1238 0000101E C60500              <1>     mov byte [di], 0
  1239 00001021 C3                  <1>     ret
  1240                              <1> 
  1241                              <1> ramlist_program:
  1242 00001022 E88D01              <1>     call ramlist_init
  1243 00001025 BE[FB2F]            <1>     mov si, msg_ramlist_intro
  1244 00001028 E83DF2              <1>     call print_string
  1245                              <1> 
  1246                              <1> .loop:
  1247 0000102B BE[B236]            <1>     mov si, prompt_ramlist
  1248 0000102E E837F2              <1>     call print_string
  1249 00001031 BF[223B]            <1>     mov di, input_buffer
  1250 00001034 B9FF0F              <1>     mov cx, INPUT_MAX
  1251 00001037 E8BDF0              <1>     call read_line
  1252 0000103A 803E[223B]00        <1>     cmp byte [input_buffer], 0
  1253 0000103F 0F84BB00            <1>     je .exit
  1254                              <1> 
  1255 00001043 BE[223B]            <1>     mov si, input_buffer
  1256 00001046 BF[C637]            <1>     mov di, cmd_exit
  1257 00001049 E88EF3              <1>     call streq
  1258 0000104C 3C01                <1>     cmp al, 1
  1259 0000104E 0F84AC00            <1>     je .exit
  1260                              <1> 
  1261 00001052 BE[223B]            <1>     mov si, input_buffer
  1262 00001055 BF[CB37]            <1>     mov di, cmd_ramlist_push
  1263 00001058 E87FF3              <1>     call streq
  1264 0000105B 3C01                <1>     cmp al, 1
  1265 0000105D 742F                <1>     je .push
  1266                              <1> 
  1267 0000105F BE[223B]            <1>     mov si, input_buffer
  1268 00001062 BF[D037]            <1>     mov di, cmd_ramlist_pop
  1269 00001065 E872F3              <1>     call streq
  1270 00001068 3C01                <1>     cmp al, 1
  1271 0000106A 744E                <1>     je .pop
  1272                              <1> 
  1273 0000106C BE[223B]            <1>     mov si, input_buffer
  1274 0000106F BF[D437]            <1>     mov di, cmd_ramlist_show
  1275 00001072 E865F3              <1>     call streq
  1276 00001075 3C01                <1>     cmp al, 1
  1277 00001077 7458                <1>     je .show
  1278                              <1> 
  1279 00001079 BE[223B]            <1>     mov si, input_buffer
  1280 0000107C BF[D937]            <1>     mov di, cmd_ramlist_clear
  1281 0000107F E858F3              <1>     call streq
  1282 00001082 3C01                <1>     cmp al, 1
  1283 00001084 7451                <1>     je .clear
  1284                              <1> 
  1285 00001086 BE[3530]            <1>     mov si, msg_ramlist_unknown
  1286 00001089 E8DCF1              <1>     call print_string
  1287 0000108C EB9D                <1>     jmp .loop
  1288                              <1> 
  1289                              <1> .push:
  1290 0000108E BE[C536]            <1>     mov si, prompt_ramlist_value
  1291 00001091 E8D4F1              <1>     call print_string
  1292 00001094 BF[223B]            <1>     mov di, input_buffer
  1293 00001097 B9FF0F              <1>     mov cx, INPUT_MAX
  1294 0000109A E85AF0              <1>     call read_line
  1295 0000109D 803E[223B]00        <1>     cmp byte [input_buffer], 0
  1296 000010A2 7487                <1>     je .loop
  1297 000010A4 BE[223B]            <1>     mov si, input_buffer
  1298 000010A7 E859F3              <1>     call parse_signed_int
  1299 000010AA 7237                <1>     jc .bad_value
  1300 000010AC E83D01              <1>     call ramlist_push_ax
  1301 000010AF 723B                <1>     jc .full
  1302 000010B1 BE[7130]            <1>     mov si, msg_ramlist_pushed
  1303 000010B4 E8B1F1              <1>     call print_string
  1304 000010B7 E971FF              <1>     jmp .loop
  1305                              <1> 
  1306                              <1> .pop:
  1307 000010BA E88201              <1>     call ramlist_pop_ax
  1308 000010BD 7236                <1>     jc .empty
  1309 000010BF BE[7A30]            <1>     mov si, msg_ramlist_popped
  1310 000010C2 E8A3F1              <1>     call print_string
  1311 000010C5 E8DFF3              <1>     call print_int_ax
  1312 000010C8 BE[1637]            <1>     mov si, newline
  1313 000010CB E89AF1              <1>     call print_string
  1314 000010CE E95AFF              <1>     jmp .loop
  1315                              <1> 
  1316                              <1> .show:
  1317 000010D1 E8AD01              <1>     call ramlist_show
  1318 000010D4 E954FF              <1>     jmp .loop
  1319                              <1> 
  1320                              <1> .clear:
  1321 000010D7 E8E800              <1>     call ramlist_reset
  1322 000010DA BE[8230]            <1>     mov si, msg_ramlist_cleared
  1323 000010DD E888F1              <1>     call print_string
  1324 000010E0 E948FF              <1>     jmp .loop
  1325                              <1> 
  1326                              <1> .bad_value:
  1327 000010E3 BE[5430]            <1>     mov si, msg_ramlist_bad_value
  1328 000010E6 E87FF1              <1>     call print_string
  1329 000010E9 E93FFF              <1>     jmp .loop
  1330                              <1> 
  1331                              <1> .full:
  1332 000010EC BE[6230]            <1>     mov si, msg_ramlist_full
  1333 000010EF E876F1              <1>     call print_string
  1334 000010F2 E936FF              <1>     jmp .loop
  1335                              <1> 
  1336                              <1> .empty:
  1337 000010F5 BE[6930]            <1>     mov si, msg_ramlist_empty
  1338 000010F8 E86DF1              <1>     call print_string
  1339 000010FB E92DFF              <1>     jmp .loop
  1340                              <1> 
  1341                              <1> .exit:
  1342 000010FE BE[2330]            <1>     mov si, msg_ramlist_exit
  1343 00001101 E864F1              <1>     call print_string
  1344 00001104 C3                  <1>     ret
  1345                              <1> 
  1346                              <1> screen_program:
  1347 00001105 BE[A330]            <1>     mov si, msg_screen_intro
  1348 00001108 E85DF1              <1>     call print_string
  1349                              <1> 
  1350                              <1> .loop:
  1351 0000110B BE[BC36]            <1>     mov si, prompt_screen
  1352 0000110E E857F1              <1>     call print_string
  1353 00001111 BF[223B]            <1>     mov di, input_buffer
  1354 00001114 B9FF0F              <1>     mov cx, INPUT_MAX
  1355 00001117 E8DDEF              <1>     call read_line
  1356 0000111A 803E[223B]00        <1>     cmp byte [input_buffer], 0
  1357 0000111F 0F848800            <1>     je .exit
  1358                              <1> 
  1359 00001123 BE[223B]            <1>     mov si, input_buffer
  1360 00001126 BF[C637]            <1>     mov di, cmd_exit
  1361 00001129 E8AEF2              <1>     call streq
  1362 0000112C 3C01                <1>     cmp al, 1
  1363 0000112E 747B                <1>     je .exit
  1364                              <1> 
  1365 00001130 BE[223B]            <1>     mov si, input_buffer
  1366 00001133 BF[DF37]            <1>     mov di, cmd_screen_status
  1367 00001136 E8A1F2              <1>     call streq
  1368 00001139 3C01                <1>     cmp al, 1
  1369 0000113B 742F                <1>     je .status
  1370                              <1> 
  1371 0000113D BE[223B]            <1>     mov si, input_buffer
  1372 00001140 BF[E637]            <1>     mov di, cmd_screen_on
  1373 00001143 E894F2              <1>     call streq
  1374 00001146 3C01                <1>     cmp al, 1
  1375 00001148 743F                <1>     je .on
  1376                              <1> 
  1377 0000114A BE[223B]            <1>     mov si, input_buffer
  1378 0000114D BF[E937]            <1>     mov di, cmd_screen_off
  1379 00001150 E887F2              <1>     call streq
  1380 00001153 3C01                <1>     cmp al, 1
  1381 00001155 7440                <1>     je .off
  1382                              <1> 
  1383 00001157 BE[223B]            <1>     mov si, input_buffer
  1384 0000115A BF[ED37]            <1>     mov di, cmd_screen_clear
  1385 0000115D E87AF2              <1>     call streq
  1386 00001160 3C01                <1>     cmp al, 1
  1387 00001162 7441                <1>     je .clear
  1388                              <1> 
  1389 00001164 BE[CA30]            <1>     mov si, msg_screen_unknown
  1390 00001167 E8FEF0              <1>     call print_string
  1391 0000116A EB9F                <1>     jmp .loop
  1392                              <1> 
  1393                              <1> .status:
  1394 0000116C BE[E930]            <1>     mov si, msg_screen_status_prefix
  1395 0000116F E8F6F0              <1>     call print_string
  1396 00001172 803E[A44F]01        <1>     cmp byte [monitor_auto_clear], 1
  1397 00001177 7408                <1>     je .status_on
  1398 00001179 BE[FB30]            <1>     mov si, msg_screen_off_state
  1399 0000117C E8E9F0              <1>     call print_string
  1400 0000117F EB8A                <1>     jmp .loop
  1401                              <1> 
  1402                              <1> .status_on:
  1403 00001181 BE[F630]            <1>     mov si, msg_screen_on_state
  1404 00001184 E8E1F0              <1>     call print_string
  1405 00001187 EB82                <1>     jmp .loop
  1406                              <1> 
  1407                              <1> .on:
  1408 00001189 C606[A44F]01        <1>     mov byte [monitor_auto_clear], 1
  1409 0000118E BE[0131]            <1>     mov si, msg_screen_enabled
  1410 00001191 E8D4F0              <1>     call print_string
  1411 00001194 E974FF              <1>     jmp .loop
  1412                              <1> 
  1413                              <1> .off:
  1414 00001197 C606[A44F]00        <1>     mov byte [monitor_auto_clear], 0
  1415 0000119C BE[1631]            <1>     mov si, msg_screen_disabled
  1416 0000119F E8C6F0              <1>     call print_string
  1417 000011A2 E966FF              <1>     jmp .loop
  1418                              <1> 
  1419                              <1> .clear:
  1420 000011A5 E830EF              <1>     call clear_console
  1421 000011A8 E960FF              <1>     jmp .loop
  1422                              <1> 
  1423                              <1> .exit:
  1424 000011AB BE[2C31]            <1>     mov si, msg_screen_exit
  1425 000011AE E8B7F0              <1>     call print_string
  1426 000011B1 C3                  <1>     ret
  1427                              <1> 
  1428                              <1> ramlist_init:
  1429 000011B2 803E[5E4F]01        <1>     cmp byte [ramlist_initialized], 1
  1430 000011B7 7408                <1>     je .done
  1431 000011B9 E80600              <1>     call ramlist_reset
  1432 000011BC C606[5E4F]01        <1>     mov byte [ramlist_initialized], 1
  1433                              <1> .done:
  1434 000011C1 C3                  <1>     ret
  1435                              <1> 
  1436                              <1> ramlist_reset:
  1437 000011C2 C606[5F4F]FF        <1>     mov byte [ramlist_head], 0xff
  1438 000011C7 C606[604F]FF        <1>     mov byte [ramlist_tail], 0xff
  1439 000011CC C606[614F]00        <1>     mov byte [ramlist_free_head], 0
  1440 000011D1 C606[624F]00        <1>     mov byte [ramlist_count], 0
  1441 000011D6 31DB                <1>     xor bx, bx
  1442                              <1> 
  1443                              <1> .link_free:
  1444 000011D8 88D8                <1>     mov al, bl
  1445 000011DA FEC0                <1>     inc al
  1446 000011DC 8887[634F]          <1>     mov [ramlist_next + bx], al
  1447 000011E0 43                  <1>     inc bx
  1448 000011E1 80FB10              <1>     cmp bl, RAMLIST_NODE_COUNT
  1449 000011E4 72F2                <1>     jb .link_free
  1450 000011E6 C606[724F]FF        <1>     mov byte [ramlist_next + RAMLIST_NODE_COUNT - 1], 0xff
  1451 000011EB C3                  <1>     ret
  1452                              <1> 
  1453                              <1> ramlist_push_ax:
  1454 000011EC 53                  <1>     push bx
  1455 000011ED 51                  <1>     push cx
  1456 000011EE 52                  <1>     push dx
  1457 000011EF 8A1E[614F]          <1>     mov bl, [ramlist_free_head]
  1458 000011F3 80FBFF              <1>     cmp bl, 0xff
  1459 000011F6 7442                <1>     je .full
  1460 000011F8 30FF                <1>     xor bh, bh
  1461 000011FA 8A97[634F]          <1>     mov dl, [ramlist_next + bx]
  1462 000011FE 8816[614F]          <1>     mov [ramlist_free_head], dl
  1463 00001202 89D9                <1>     mov cx, bx
  1464 00001204 D1E3                <1>     shl bx, 1
  1465 00001206 8987[734F]          <1>     mov [ramlist_values + bx], ax
  1466 0000120A 89CB                <1>     mov bx, cx
  1467 0000120C C687[634F]FF        <1>     mov byte [ramlist_next + bx], 0xff
  1468 00001211 803E[5F4F]FF        <1>     cmp byte [ramlist_head], 0xff
  1469 00001216 750A                <1>     jne .append
  1470 00001218 881E[5F4F]          <1>     mov [ramlist_head], bl
  1471 0000121C 881E[604F]          <1>     mov [ramlist_tail], bl
  1472 00001220 EB11                <1>     jmp .done
  1473                              <1> 
  1474                              <1> .append:
  1475 00001222 56                  <1>     push si
  1476 00001223 31C0                <1>     xor ax, ax
  1477 00001225 A0[604F]            <1>     mov al, [ramlist_tail]
  1478 00001228 89C6                <1>     mov si, ax
  1479 0000122A 889C[634F]          <1>     mov [ramlist_next + si], bl
  1480 0000122E 5E                  <1>     pop si
  1481 0000122F 881E[604F]          <1>     mov [ramlist_tail], bl
  1482                              <1> 
  1483                              <1> .done:
  1484 00001233 FE06[624F]          <1>     inc byte [ramlist_count]
  1485 00001237 F8                  <1>     clc
  1486 00001238 EB01                <1>     jmp .return
  1487                              <1> 
  1488                              <1> .full:
  1489 0000123A F9                  <1>     stc
  1490                              <1> 
  1491                              <1> .return:
  1492 0000123B 5A                  <1>     pop dx
  1493 0000123C 59                  <1>     pop cx
  1494 0000123D 5B                  <1>     pop bx
  1495 0000123E C3                  <1>     ret
  1496                              <1> 
  1497                              <1> ramlist_pop_ax:
  1498 0000123F 53                  <1>     push bx
  1499 00001240 51                  <1>     push cx
  1500 00001241 52                  <1>     push dx
  1501 00001242 8A1E[5F4F]          <1>     mov bl, [ramlist_head]
  1502 00001246 80FBFF              <1>     cmp bl, 0xff
  1503 00001249 7431                <1>     je .empty
  1504 0000124B 30FF                <1>     xor bh, bh
  1505 0000124D 8A97[634F]          <1>     mov dl, [ramlist_next + bx]
  1506 00001251 8816[5F4F]          <1>     mov [ramlist_head], dl
  1507 00001255 80FAFF              <1>     cmp dl, 0xff
  1508 00001258 7505                <1>     jne .load_value
  1509 0000125A C606[604F]FF        <1>     mov byte [ramlist_tail], 0xff
  1510                              <1> 
  1511                              <1> .load_value:
  1512 0000125F 89D9                <1>     mov cx, bx
  1513 00001261 D1E3                <1>     shl bx, 1
  1514 00001263 8B87[734F]          <1>     mov ax, [ramlist_values + bx]
  1515 00001267 89CB                <1>     mov bx, cx
  1516 00001269 8A16[614F]          <1>     mov dl, [ramlist_free_head]
  1517 0000126D 8897[634F]          <1>     mov [ramlist_next + bx], dl
  1518 00001271 881E[614F]          <1>     mov [ramlist_free_head], bl
  1519 00001275 FE0E[624F]          <1>     dec byte [ramlist_count]
  1520 00001279 F8                  <1>     clc
  1521 0000127A EB01                <1>     jmp .return
  1522                              <1> 
  1523                              <1> .empty:
  1524 0000127C F9                  <1>     stc
  1525                              <1> 
  1526                              <1> .return:
  1527 0000127D 5A                  <1>     pop dx
  1528 0000127E 59                  <1>     pop cx
  1529 0000127F 5B                  <1>     pop bx
  1530 00001280 C3                  <1>     ret
  1531                              <1> 
  1532                              <1> ramlist_show:
  1533 00001281 50                  <1>     push ax
  1534 00001282 53                  <1>     push bx
  1535 00001283 51                  <1>     push cx
  1536 00001284 BE[8C30]            <1>     mov si, msg_ramlist_show
  1537 00001287 E8DEEF              <1>     call print_string
  1538 0000128A 8A1E[5F4F]          <1>     mov bl, [ramlist_head]
  1539 0000128E 80FBFF              <1>     cmp bl, 0xff
  1540 00001291 7508                <1>     jne .loop
  1541 00001293 BE[9830]            <1>     mov si, msg_ramlist_none
  1542 00001296 E8CFEF              <1>     call print_string
  1543 00001299 EB2A                <1>     jmp .done
  1544                              <1> 
  1545                              <1> .loop:
  1546 0000129B 30FF                <1>     xor bh, bh
  1547 0000129D 89D8                <1>     mov ax, bx
  1548 0000129F 40                  <1>     inc ax
  1549 000012A0 E8D5F1              <1>     call print_uint_ax
  1550 000012A3 BE[A030]            <1>     mov si, msg_ramlist_item_sep
  1551 000012A6 E8BFEF              <1>     call print_string
  1552 000012A9 89D9                <1>     mov cx, bx
  1553 000012AB D1E3                <1>     shl bx, 1
  1554 000012AD 8B87[734F]          <1>     mov ax, [ramlist_values + bx]
  1555 000012B1 E8F3F1              <1>     call print_int_ax
  1556 000012B4 BE[1637]            <1>     mov si, newline
  1557 000012B7 E8AEEF              <1>     call print_string
  1558 000012BA 89CB                <1>     mov bx, cx
  1559 000012BC 8A9F[634F]          <1>     mov bl, [ramlist_next + bx]
  1560 000012C0 80FBFF              <1>     cmp bl, 0xff
  1561 000012C3 75D6                <1>     jne .loop
  1562                              <1> 
  1563                              <1> .done:
  1564 000012C5 59                  <1>     pop cx
  1565 000012C6 5B                  <1>     pop bx
  1566 000012C7 58                  <1>     pop ax
  1567 000012C8 C3                  <1>     ret
  1568                              <1> 
  1569                              <1> copy_capped_string:
  1570 000012C9 50                  <1>     push ax
  1571                              <1> 
  1572                              <1> .loop:
  1573 000012CA AC                  <1>     lodsb
  1574 000012CB 84C0                <1>     test al, al
  1575 000012CD 740D                <1>     jz .terminate
  1576 000012CF 85C9                <1>     test cx, cx
  1577 000012D1 7404                <1>     jz .truncate
  1578 000012D3 AA                  <1>     stosb
  1579 000012D4 49                  <1>     dec cx
  1580 000012D5 EBF3                <1>     jmp .loop
  1581                              <1> 
  1582                              <1> .truncate:
  1583 000012D7 B000                <1>     mov al, 0
  1584 000012D9 AA                  <1>     stosb
  1585 000012DA EB03                <1>     jmp .done
  1586                              <1> 
  1587                              <1> .terminate:
  1588 000012DC B000                <1>     mov al, 0
  1589 000012DE AA                  <1>     stosb
  1590                              <1> 
  1591                              <1> .done:
  1592 000012DF 58                  <1>     pop ax
  1593 000012E0 C3                  <1>     ret
  1594                              <1> 
  1595                              <1> strprefix:
  1596 000012E1 56                  <1>     push si
  1597 000012E2 57                  <1>     push di
  1598                              <1> 
  1599                              <1> .loop:
  1600 000012E3 8A05                <1>     mov al, [di]
  1601 000012E5 84C0                <1>     test al, al
  1602 000012E7 7408                <1>     jz .match
  1603 000012E9 3804                <1>     cmp [si], al
  1604 000012EB 7508                <1>     jne .miss
  1605 000012ED 46                  <1>     inc si
  1606 000012EE 47                  <1>     inc di
  1607 000012EF EBF2                <1>     jmp .loop
  1608                              <1> 
  1609                              <1> .match:
  1610 000012F1 B001                <1>     mov al, 1
  1611 000012F3 EB02                <1>     jmp .done
  1612                              <1> 
  1613                              <1> .miss:
  1614 000012F5 30C0                <1>     xor al, al
  1615                              <1> 
  1616                              <1> .done:
  1617 000012F7 5F                  <1>     pop di
  1618 000012F8 5E                  <1>     pop si
  1619 000012F9 C3                  <1>     ret
  1620                              <1> 
  1621                              <1> hex_char_to_nibble:
  1622 000012FA 3C30                <1>     cmp al, '0'
  1623 000012FC 7204                <1>     jb .maybe_alpha
  1624 000012FE 3C39                <1>     cmp al, '9'
  1625 00001300 760E                <1>     jbe .digit
  1626                              <1> 
  1627                              <1> .maybe_alpha:
  1628 00001302 0C20                <1>     or al, 0x20
  1629 00001304 3C61                <1>     cmp al, 'a'
  1630 00001306 720C                <1>     jb .fail
  1631 00001308 3C66                <1>     cmp al, 'f'
  1632 0000130A 7708                <1>     ja .fail
  1633 0000130C 2C57                <1>     sub al, 'a' - 10
  1634 0000130E F8                  <1>     clc
  1635 0000130F C3                  <1>     ret
  1636                              <1> 
  1637                              <1> .digit:
  1638 00001310 2C30                <1>     sub al, '0'
  1639 00001312 F8                  <1>     clc
  1640 00001313 C3                  <1>     ret
  1641                              <1> 
  1642                              <1> .fail:
  1643 00001314 F9                  <1>     stc
  1644 00001315 C3                  <1>     ret
  1645                              <1> 
  1646                              <1> parse_hex_word:
  1647 00001316 51                  <1>     push cx
  1648 00001317 31DB                <1>     xor bx, bx
  1649 00001319 31C9                <1>     xor cx, cx
  1650                              <1> 
  1651 0000131B 803C30              <1>     cmp byte [si], '0'
  1652 0000131E 750C                <1>     jne .digits
  1653 00001320 8A4401              <1>     mov al, [si + 1]
  1654 00001323 0C20                <1>     or al, 0x20
  1655 00001325 3C78                <1>     cmp al, 'x'
  1656 00001327 7503                <1>     jne .digits
  1657 00001329 83C602              <1>     add si, 2
  1658                              <1> 
  1659                              <1> .digits:
  1660 0000132C 8A04                <1>     mov al, [si]
  1661 0000132E E8C9FF              <1>     call hex_char_to_nibble
  1662 00001331 7215                <1>     jc .finish
  1663 00001333 C1E304              <1>     shl bx, 4
  1664 00001336 08C3                <1>     or bl, al
  1665 00001338 46                  <1>     inc si
  1666 00001339 41                  <1>     inc cx
  1667 0000133A 83F904              <1>     cmp cx, 4
  1668 0000133D 72ED                <1>     jb .digits
  1669                              <1> 
  1670 0000133F 8A04                <1>     mov al, [si]
  1671 00001341 E8B6FF              <1>     call hex_char_to_nibble
  1672 00001344 7309                <1>     jnc .fail
  1673 00001346 EB04                <1>     jmp .success
  1674                              <1> 
  1675                              <1> .finish:
  1676 00001348 85C9                <1>     test cx, cx
  1677 0000134A 7403                <1>     jz .fail
  1678                              <1> 
  1679                              <1> .success:
  1680 0000134C 59                  <1>     pop cx
  1681 0000134D F8                  <1>     clc
  1682 0000134E C3                  <1>     ret
  1683                              <1> 
  1684                              <1> .fail:
  1685 0000134F 59                  <1>     pop cx
  1686 00001350 F9                  <1>     stc
  1687 00001351 C3                  <1>     ret
  1688                              <1> 
  1689                              <1> parse_hex_byte:
  1690 00001352 53                  <1>     push bx
  1691 00001353 51                  <1>     push cx
  1692 00001354 31DB                <1>     xor bx, bx
  1693 00001356 31C9                <1>     xor cx, cx
  1694                              <1> 
  1695 00001358 803C30              <1>     cmp byte [si], '0'
  1696 0000135B 750C                <1>     jne .digits
  1697 0000135D 8A4401              <1>     mov al, [si + 1]
  1698 00001360 0C20                <1>     or al, 0x20
  1699 00001362 3C78                <1>     cmp al, 'x'
  1700 00001364 7503                <1>     jne .digits
  1701 00001366 83C602              <1>     add si, 2
  1702                              <1> 
  1703                              <1> .digits:
  1704 00001369 8A04                <1>     mov al, [si]
  1705 0000136B E88CFF              <1>     call hex_char_to_nibble
  1706 0000136E 7215                <1>     jc .finish
  1707 00001370 C0E304              <1>     shl bl, 4
  1708 00001373 08C3                <1>     or bl, al
  1709 00001375 46                  <1>     inc si
  1710 00001376 41                  <1>     inc cx
  1711 00001377 83F902              <1>     cmp cx, 2
  1712 0000137A 72ED                <1>     jb .digits
  1713                              <1> 
  1714 0000137C 8A04                <1>     mov al, [si]
  1715 0000137E E879FF              <1>     call hex_char_to_nibble
  1716 00001381 730C                <1>     jnc .fail
  1717 00001383 EB04                <1>     jmp .success
  1718                              <1> 
  1719                              <1> .finish:
  1720 00001385 85C9                <1>     test cx, cx
  1721 00001387 7406                <1>     jz .fail
  1722                              <1> 
  1723                              <1> .success:
  1724 00001389 88D8                <1>     mov al, bl
  1725 0000138B 59                  <1>     pop cx
  1726 0000138C 5B                  <1>     pop bx
  1727 0000138D F8                  <1>     clc
  1728 0000138E C3                  <1>     ret
  1729                              <1> 
  1730                              <1> .fail:
  1731 0000138F 59                  <1>     pop cx
  1732 00001390 5B                  <1>     pop bx
  1733 00001391 F9                  <1>     stc
  1734 00001392 C3                  <1>     ret
  1735                              <1> 
  1736                              <1> parse_patch:
  1737 00001393 E85FF0              <1>     call skip_spaces
  1738 00001396 E87DFF              <1>     call parse_hex_word
  1739 00001399 7235                <1>     jc .fail
  1740 0000139B 891E[BE38]          <1>     mov [patch_offset], bx
  1741 0000139F C706[C038]0000      <1>     mov word [patch_byte_count], 0
  1742                              <1> 
  1743                              <1> .next_byte:
  1744 000013A5 E84DF0              <1>     call skip_spaces
  1745 000013A8 803C00              <1>     cmp byte [si], 0
  1746 000013AB 741A                <1>     je .done
  1747 000013AD E8A2FF              <1>     call parse_hex_byte
  1748 000013B0 721E                <1>     jc .fail
  1749 000013B2 8B1E[C038]          <1>     mov bx, [patch_byte_count]
  1750 000013B6 81FB0002            <1>     cmp bx, PATCH_MAX_BYTES
  1751 000013BA 7314                <1>     jae .fail
  1752 000013BC 8887[C238]          <1>     mov [patch_bytes + bx], al
  1753 000013C0 43                  <1>     inc bx
  1754 000013C1 891E[C038]          <1>     mov [patch_byte_count], bx
  1755 000013C5 EBDE                <1>     jmp .next_byte
  1756                              <1> 
  1757                              <1> .done:
  1758 000013C7 833E[C038]00        <1>     cmp word [patch_byte_count], 0
  1759 000013CC 7402                <1>     je .fail
  1760 000013CE F8                  <1>     clc
  1761 000013CF C3                  <1>     ret
  1762                              <1> 
  1763                              <1> .fail:
  1764 000013D0 F9                  <1>     stc
  1765 000013D1 C3                  <1>     ret
  1766                              <1> 
  1767                              <1> parse_stream:
  1768 000013D2 E820F0              <1>     call skip_spaces
  1769 000013D5 C706[C038]0000      <1>     mov word [patch_byte_count], 0
  1770                              <1> 
  1771                              <1> .next_byte:
  1772 000013DB E817F0              <1>     call skip_spaces
  1773 000013DE 803C00              <1>     cmp byte [si], 0
  1774 000013E1 741A                <1>     je .done
  1775 000013E3 E86CFF              <1>     call parse_hex_byte
  1776 000013E6 721E                <1>     jc .fail
  1777 000013E8 8B1E[C038]          <1>     mov bx, [patch_byte_count]
  1778 000013EC 81FBF001            <1>     cmp bx, STREAM_MAX_BYTES
  1779 000013F0 7314                <1>     jae .fail
  1780 000013F2 8887[C238]          <1>     mov [patch_bytes + bx], al
  1781 000013F6 43                  <1>     inc bx
  1782 000013F7 891E[C038]          <1>     mov [patch_byte_count], bx
  1783 000013FB EBDE                <1>     jmp .next_byte
  1784                              <1> 
  1785                              <1> .done:
  1786 000013FD 833E[C038]00        <1>     cmp word [patch_byte_count], 0
  1787 00001402 7402                <1>     je .fail
  1788 00001404 F8                  <1>     clc
  1789 00001405 C3                  <1>     ret
  1790                              <1> 
  1791                              <1> .fail:
  1792 00001406 F9                  <1>     stc
  1793 00001407 C3                  <1>     ret
  1794                              <1> 
  1795                              <1> parse_peek_args:
  1796 00001408 E8EAEF              <1>     call skip_spaces
  1797 0000140B E808FF              <1>     call parse_hex_word
  1798 0000140E 7224                <1>     jc .fail
  1799 00001410 891E[C23A]          <1>     mov [peek_offset], bx
  1800 00001414 E8DEEF              <1>     call skip_spaces
  1801 00001417 E8FCFE              <1>     call parse_hex_word
  1802 0000141A 7218                <1>     jc .fail
  1803 0000141C 85DB                <1>     test bx, bx
  1804 0000141E 7414                <1>     jz .fail
  1805 00001420 81FB800C            <1>     cmp bx, PEEK_MAX_BYTES
  1806 00001424 770E                <1>     ja .fail
  1807 00001426 891E[C43A]          <1>     mov [peek_count], bx
  1808 0000142A E8C8EF              <1>     call skip_spaces
  1809 0000142D 803C00              <1>     cmp byte [si], 0
  1810 00001430 7502                <1>     jne .fail
  1811 00001432 F8                  <1>     clc
  1812 00001433 C3                  <1>     ret
  1813                              <1> 
  1814                              <1> .fail:
  1815 00001434 F9                  <1>     stc
  1816 00001435 C3                  <1>     ret
  1817                              <1> 
  1818                              <1> parse_peek_page_args:
  1819 00001436 E8BCEF              <1>     call skip_spaces
  1820 00001439 E8DAFE              <1>     call parse_hex_word
  1821 0000143C 722D                <1>     jc .fail
  1822 0000143E 53                  <1>     push bx
  1823 0000143F E8B3EF              <1>     call skip_spaces
  1824 00001442 E8D1FE              <1>     call parse_hex_word
  1825 00001445 7223                <1>     jc .fail_pop
  1826 00001447 89D8                <1>     mov ax, bx
  1827 00001449 B9800C              <1>     mov cx, PEEK_MAX_BYTES
  1828 0000144C F7E1                <1>     mul cx
  1829 0000144E 5B                  <1>     pop bx
  1830 0000144F 85D2                <1>     test dx, dx
  1831 00001451 7518                <1>     jne .fail
  1832 00001453 01D8                <1>     add ax, bx
  1833 00001455 7214                <1>     jc .fail
  1834 00001457 A3[C23A]            <1>     mov [peek_offset], ax
  1835 0000145A C706[C43A]800C      <1>     mov word [peek_count], PEEK_MAX_BYTES
  1836 00001460 E892EF              <1>     call skip_spaces
  1837 00001463 803C00              <1>     cmp byte [si], 0
  1838 00001466 7503                <1>     jne .fail
  1839 00001468 F8                  <1>     clc
  1840 00001469 C3                  <1>     ret
  1841                              <1> 
  1842                              <1> .fail_pop:
  1843 0000146A 5B                  <1>     pop bx
  1844                              <1> .fail:
  1845 0000146B F9                  <1>     stc
  1846 0000146C C3                  <1>     ret
  1847                              <1> 
  1848                              <1> peek_dump:
  1849 0000146D 50                  <1>     push ax
  1850 0000146E 53                  <1>     push bx
  1851 0000146F 51                  <1>     push cx
  1852 00001470 56                  <1>     push si
  1853 00001471 E86D06              <1>     call navigator_configure_memory_hex
  1854 00001474 A1[C23A]            <1>     mov ax, [peek_offset]
  1855 00001477 A3[C377]            <1>     mov [navigator_cursor], ax
  1856 0000147A A1[C43A]            <1>     mov ax, [peek_count]
  1857 0000147D A3[C577]            <1>     mov [navigator_window], ax
  1858 00001480 BE[D92D]            <1>     mov si, msg_peek_header
  1859 00001483 E8B809              <1>     call navigator_render_hex_with_prefix
  1860                              <1> 
  1861                              <1> .done:
  1862 00001486 5E                  <1>     pop si
  1863 00001487 59                  <1>     pop cx
  1864 00001488 5B                  <1>     pop bx
  1865 00001489 58                  <1>     pop ax
  1866 0000148A C3                  <1>     ret
  1867                              <1> 
  1868                              <1> print_patch_warning:
  1869 0000148B 50                  <1>     push ax
  1870 0000148C 53                  <1>     push bx
  1871 0000148D 51                  <1>     push cx
  1872 0000148E 6650                <1>     push eax
  1873 00001490 56                  <1>     push si
  1874 00001491 BE[9231]            <1>     mov si, msg_patch_danger
  1875 00001494 E8D1ED              <1>     call print_string
  1876 00001497 BE[C131]            <1>     mov si, msg_patch_offset
  1877 0000149A E8CBED              <1>     call print_string
  1878 0000149D A1[BE38]            <1>     mov ax, [patch_offset]
  1879 000014A0 E88AF0              <1>     call print_hex_word_safe
  1880 000014A3 BE[CB31]            <1>     mov si, msg_patch_bytes
  1881 000014A6 E8BFED              <1>     call print_string
  1882 000014A9 31DB                <1>     xor bx, bx
  1883 000014AB 8B0E[C038]          <1>     mov cx, [patch_byte_count]
  1884                              <1> 
  1885                              <1> .byte_loop:
  1886 000014AF 85C9                <1>     test cx, cx
  1887 000014B1 7414                <1>     jz .prompt
  1888 000014B3 8A87[C238]          <1>     mov al, [patch_bytes + bx]
  1889 000014B7 E863F0              <1>     call print_hex_byte_safe
  1890 000014BA 49                  <1>     dec cx
  1891 000014BB 43                  <1>     inc bx
  1892 000014BC 85C9                <1>     test cx, cx
  1893 000014BE 7407                <1>     jz .prompt
  1894 000014C0 B020                <1>     mov al, ' '
  1895 000014C2 E8AEED              <1>     call print_char
  1896 000014C5 EBE8                <1>     jmp .byte_loop
  1897                              <1> 
  1898                              <1> .prompt:
  1899 000014C7 BE[1637]            <1>     mov si, newline
  1900 000014CA E89BED              <1>     call print_string
  1901 000014CD 6658                <1>     pop eax
  1902 000014CF 5E                  <1>     pop si
  1903 000014D0 59                  <1>     pop cx
  1904 000014D1 5B                  <1>     pop bx
  1905 000014D2 58                  <1>     pop ax
  1906 000014D3 C3                  <1>     ret
  1907                              <1> 
  1908                              <1> apply_live_patch:
  1909 000014D4 BE[D331]            <1>     mov si, msg_applying
  1910 000014D7 E88EED              <1>     call print_string
  1911 000014DA 8B1E[BE38]          <1>     mov bx, [patch_offset]
  1912 000014DE 81C30080            <1>     add bx, 0x8000
  1913 000014E2 89DF                <1>     mov di, bx
  1914 000014E4 8B0E[C038]          <1>     mov cx, [patch_byte_count]
  1915 000014E8 BE[C238]            <1>     mov si, patch_bytes
  1916 000014EB FC                  <1>     cld
  1917 000014EC F3A4                <1>     rep movsb
  1918 000014EE EB00                <1>     jmp short $+2
  1919 000014F0 BE[F231]            <1>     mov si, msg_patch_applied
  1920 000014F3 E872ED              <1>     call print_string
  1921 000014F6 C3                  <1>     ret
  1922                              <1> 
  1923                              <1> execute_live_stream:
  1924 000014F7 50                  <1>     push ax
  1925 000014F8 53                  <1>     push bx
  1926 000014F9 51                  <1>     push cx
  1927 000014FA 52                  <1>     push dx
  1928 000014FB 56                  <1>     push si
  1929 000014FC 57                  <1>     push di
  1930 000014FD 55                  <1>     push bp
  1931 000014FE 1E                  <1>     push ds
  1932 000014FF 06                  <1>     push es
  1933 00001500 8B1E[C038]          <1>     mov bx, [patch_byte_count]
  1934 00001504 C687[C238]C3        <1>     mov byte [patch_bytes + bx], 0xC3
  1935 00001509 E8B623              <1>     call patch_bytes
  1936 0000150C A3[BE38]            <1>     mov [patch_offset], ax
  1937 0000150F 07                  <1>     pop es
  1938 00001510 1F                  <1>     pop ds
  1939 00001511 5D                  <1>     pop bp
  1940 00001512 5F                  <1>     pop di
  1941 00001513 5E                  <1>     pop si
  1942 00001514 5A                  <1>     pop dx
  1943 00001515 59                  <1>     pop cx
  1944 00001516 5B                  <1>     pop bx
  1945 00001517 58                  <1>     pop ax
  1946 00001518 BE[4B32]            <1>     mov si, msg_stream_result
  1947 0000151B E84AED              <1>     call print_string
  1948 0000151E A1[BE38]            <1>     mov ax, [patch_offset]
  1949 00001521 E809F0              <1>     call print_hex_word_safe
  1950 00001524 BE[1637]            <1>     mov si, newline
  1951 00001527 E83EED              <1>     call print_string
  1952 0000152A C3                  <1>     ret
  1953                              <1> 
  1954                              <1> peek_program:
  1955 0000152B E880EC              <1>     call set_text_mode
  1956 0000152E BE[292D]            <1>     mov si, msg_peek_intro
  1957 00001531 E834ED              <1>     call print_string
  1958 00001534 BE[F436]            <1>     mov si, prompt_peek_offset
  1959 00001537 E82EED              <1>     call print_string
  1960 0000153A BF[C63A]            <1>     mov di, peek_token_buffer
  1961 0000153D B90700              <1>     mov cx, 7
  1962 00001540 E8B4EB              <1>     call read_line
  1963 00001543 803E[C63A]00        <1>     cmp byte [peek_token_buffer], 0
  1964 00001548 743C                <1>     je .bad
  1965 0000154A BE[C63A]            <1>     mov si, peek_token_buffer
  1966 0000154D E8C6FD              <1>     call parse_hex_word
  1967 00001550 7234                <1>     jc .bad
  1968 00001552 891E[C23A]          <1>     mov [peek_offset], bx
  1969 00001556 BE[0137]            <1>     mov si, prompt_peek_count
  1970 00001559 E80CED              <1>     call print_string
  1971 0000155C BF[C63A]            <1>     mov di, peek_token_buffer
  1972 0000155F B90700              <1>     mov cx, 7
  1973 00001562 E892EB              <1>     call read_line
  1974 00001565 803E[C63A]00        <1>     cmp byte [peek_token_buffer], 0
  1975 0000156A 741A                <1>     je .bad
  1976 0000156C BE[C63A]            <1>     mov si, peek_token_buffer
  1977 0000156F E8A4FD              <1>     call parse_hex_word
  1978 00001572 7212                <1>     jc .bad
  1979 00001574 85DB                <1>     test bx, bx
  1980 00001576 740E                <1>     jz .bad
  1981 00001578 81FB800C            <1>     cmp bx, PEEK_MAX_BYTES
  1982 0000157C 7708                <1>     ja .bad
  1983 0000157E 891E[C43A]          <1>     mov [peek_count], bx
  1984 00001582 E8E8FE              <1>     call peek_dump
  1985 00001585 C3                  <1>     ret
  1986                              <1> 
  1987                              <1> .bad:
  1988 00001586 BE[5A2D]            <1>     mov si, msg_peek_bad
  1989 00001589 E8DCEC              <1>     call print_string
  1990 0000158C C3                  <1>     ret
  1991                              <1> 
  1992                              <1> host_read_response:
  1993 0000158D BF[4B78]            <1>     mov di, serial_line_buffer
  1994 00001590 B9FF01              <1>     mov cx, SERIAL_LINE_MAX
  1995 00001593 E819EE              <1>     call read_serial_line
  1996 00001596 BE[4B78]            <1>     mov si, serial_line_buffer
  1997 00001599 BF[4631]            <1>     mov di, msg_cmd_prefix
  1998 0000159C E842FD              <1>     call strprefix
  1999 0000159F 3C01                <1>     cmp al, 1
  2000 000015A1 7450                <1>     je .command
  2001                              <1> 
  2002 000015A3 C606[BB38]00        <1>     mov byte [chat_loop_active], 0
  2003 000015A8 BE[4B78]            <1>     mov si, serial_line_buffer
  2004 000015AB BF[2338]            <1>     mov di, sys_retired_prefix
  2005 000015AE E830FD              <1>     call strprefix
  2006 000015B1 3C01                <1>     cmp al, 1
  2007 000015B3 7528                <1>     jne .print_text
  2008 000015B5 C606[A938]00        <1>     mov byte [chat_session_active], 0
  2009 000015BA C606[AA38]00        <1>     mov byte [chat_session_buffer], 0
  2010 000015BF C606[BA38]00        <1>     mov byte [chat_fresh_needed], 0
  2011 000015C4 C606[BC38]00        <1>     mov byte [chat_loop_steps], 0
  2012 000015C9 C606[BD38]00        <1>     mov byte [chat_loop_resume], 0
  2013 000015CE BE[4B78]            <1>     mov si, serial_line_buffer
  2014 000015D1 E894EC              <1>     call print_string
  2015 000015D4 BE[1637]            <1>     mov si, newline
  2016 000015D7 E88EEC              <1>     call print_string
  2017 000015DA E9FFEA              <1>     jmp do_halt
  2018                              <1> 
  2019                              <1> .print_text:
  2020 000015DD BE[4B78]            <1>     mov si, serial_line_buffer
  2021 000015E0 E885EC              <1>     call print_string
  2022 000015E3 BE[1637]            <1>     mov si, newline
  2023 000015E6 E87FEC              <1>     call print_string
  2024 000015E9 BE[4B78]            <1>     mov si, serial_line_buffer
  2025 000015EC BF[6331]            <1>     mov di, msg_error_prefix
  2026 000015EF E8EFFC              <1>     call strprefix
  2027 000015F2 C3                  <1>     ret
  2028                              <1> 
  2029                              <1> .command:
  2030 000015F3 A0[BB38]            <1>     mov al, [chat_loop_active]
  2031 000015F6 A2[BD38]            <1>     mov [chat_loop_resume], al
  2032 000015F9 BE[4C31]            <1>     mov si, msg_cmd_dispatch
  2033 000015FC E869EC              <1>     call print_string
  2034 000015FF BE[5078]            <1>     mov si, serial_line_buffer + 5
  2035 00001602 E863EC              <1>     call print_string
  2036 00001605 BE[1637]            <1>     mov si, newline
  2037 00001608 E85DEC              <1>     call print_string
  2038 0000160B BE[5078]            <1>     mov si, serial_line_buffer + 5
  2039 0000160E BF[F337]            <1>     mov di, curl_prefix
  2040 00001611 E8CDFC              <1>     call strprefix
  2041 00001614 3C01                <1>     cmp al, 1
  2042 00001616 0F84A800            <1>     je .curl
  2043 0000161A BE[5078]            <1>     mov si, serial_line_buffer + 5
  2044 0000161D BF[FA37]            <1>     mov di, loop_prefix
  2045 00001620 E8BEFC              <1>     call strprefix
  2046 00001623 3C01                <1>     cmp al, 1
  2047 00001625 0F840401            <1>     je .loop_control
  2048 00001629 BE[5078]            <1>     mov si, serial_line_buffer + 5
  2049 0000162C BF[0038]            <1>     mov di, patch_prefix
  2050 0000162F E8AFFC              <1>     call strprefix
  2051 00001632 3C01                <1>     cmp al, 1
  2052 00001634 7448                <1>     je .patch
  2053 00001636 BE[5078]            <1>     mov si, serial_line_buffer + 5
  2054 00001639 BF[0838]            <1>     mov di, stream_prefix
  2055 0000163C E8A2FC              <1>     call strprefix
  2056 0000163F 3C01                <1>     cmp al, 1
  2057 00001641 7460                <1>     je .stream
  2058 00001643 BE[5078]            <1>     mov si, serial_line_buffer + 5
  2059 00001646 BF[1138]            <1>     mov di, peek_page_prefix
  2060 00001649 E895FC              <1>     call strprefix
  2061 0000164C 3C01                <1>     cmp al, 1
  2062 0000164E 0F849D00            <1>     je .peek_page
  2063 00001652 BE[5078]            <1>     mov si, serial_line_buffer + 5
  2064 00001655 BF[1C38]            <1>     mov di, peek_prefix
  2065 00001658 E886FC              <1>     call strprefix
  2066 0000165B 3C01                <1>     cmp al, 1
  2067 0000165D 0F84AD00            <1>     je .peek
  2068 00001661 BE[5078]            <1>     mov si, serial_line_buffer + 5
  2069 00001664 BF[223B]            <1>     mov di, input_buffer
  2070 00001667 B9FF0F              <1>     mov cx, INPUT_MAX
  2071 0000166A E85CFC              <1>     call copy_capped_string
  2072 0000166D E8DDE9              <1>     call dispatch_command
  2073 00001670 3C01                <1>     cmp al, 1
  2074 00001672 0F84D100            <1>     je .success
  2075 00001676 C606[BB38]00        <1>     mov byte [chat_loop_active], 0
  2076 0000167B B001                <1>     mov al, 1
  2077 0000167D C3                  <1>     ret
  2078                              <1> 
  2079                              <1> .patch:
  2080 0000167E BE[5778]            <1>     mov si, serial_line_buffer + 12
  2081 00001681 E80FFD              <1>     call parse_patch
  2082 00001684 720F                <1>     jc .patch_invalid
  2083 00001686 E802FE              <1>     call print_patch_warning
  2084 00001689 E848FE              <1>     call apply_live_patch
  2085 0000168C E811EF              <1>     call bump_generation
  2086                              <1> .patch_done:
  2087 0000168F E8C200              <1>     call chat_enable_continuation
  2088 00001692 B002                <1>     mov al, 2
  2089 00001694 C3                  <1>     ret
  2090                              <1> 
  2091                              <1> .patch_invalid:
  2092 00001695 C606[BB38]00        <1>     mov byte [chat_loop_active], 0
  2093 0000169A BE[1D32]            <1>     mov si, msg_unknown_patch
  2094 0000169D E8C8EB              <1>     call print_string
  2095 000016A0 B001                <1>     mov al, 1
  2096 000016A2 C3                  <1>     ret
  2097                              <1> 
  2098                              <1> .stream:
  2099 000016A3 BE[5878]            <1>     mov si, serial_line_buffer + 13
  2100 000016A6 E829FD              <1>     call parse_stream
  2101 000016A9 7209                <1>     jc .stream_invalid
  2102 000016AB E849FE              <1>     call execute_live_stream
  2103 000016AE E8A300              <1>     call chat_enable_continuation
  2104 000016B1 30C0                <1>     xor al, al
  2105 000016B3 C3                  <1>     ret
  2106                              <1> 
  2107                              <1> .stream_invalid:
  2108 000016B4 C606[BB38]00        <1>     mov byte [chat_loop_active], 0
  2109 000016B9 BE[5832]            <1>     mov si, msg_stream_bad
  2110 000016BC E8A9EB              <1>     call print_string
  2111 000016BF B001                <1>     mov al, 1
  2112 000016C1 C3                  <1>     ret
  2113                              <1> 
  2114                              <1> .curl:
  2115 000016C2 BE[5678]            <1>     mov si, serial_line_buffer + 11
  2116 000016C5 BF[FA4B]            <1>     mov di, task_arg_buffer
  2117 000016C8 B99F00              <1>     mov cx, TASK_GOAL_SIZE - 1
  2118 000016CB E8FBFB              <1>     call copy_capped_string
  2119 000016CE 803E[FA4B]00        <1>     cmp byte [task_arg_buffer], 0
  2120 000016D3 740C                <1>     je .curl_invalid
  2121 000016D5 E8B701              <1>     call host_send_curl_request
  2122 000016D8 E8B2FE              <1>     call host_read_response
  2123                              <1> .curl_done:
  2124 000016DB E87600              <1>     call chat_enable_continuation
  2125 000016DE 30C0                <1>     xor al, al
  2126 000016E0 C3                  <1>     ret
  2127                              <1> 
  2128                              <1> .curl_invalid:
  2129 000016E1 C606[BB38]00        <1>     mov byte [chat_loop_active], 0
  2130 000016E6 BE[F22C]            <1>     mov si, msg_curl_bad
  2131 000016E9 E87CEB              <1>     call print_string
  2132 000016EC B001                <1>     mov al, 1
  2133 000016EE C3                  <1>     ret
  2134                              <1> 
  2135                              <1> .peek_page:
  2136 000016EF BE[5A78]            <1>     mov si, serial_line_buffer + 15
  2137 000016F2 E841FD              <1>     call parse_peek_page_args
  2138 000016F5 7209                <1>     jc .peek_page_invalid
  2139 000016F7 E873FD              <1>     call peek_dump
  2140                              <1> .peek_page_done:
  2141 000016FA E85700              <1>     call chat_enable_continuation
  2142 000016FD 30C0                <1>     xor al, al
  2143 000016FF C3                  <1>     ret
  2144                              <1> 
  2145                              <1> .peek_page_invalid:
  2146 00001700 C606[BB38]00        <1>     mov byte [chat_loop_active], 0
  2147 00001705 BE[A02D]            <1>     mov si, msg_peek_page_bad
  2148 00001708 E85DEB              <1>     call print_string
  2149 0000170B B001                <1>     mov al, 1
  2150 0000170D C3                  <1>     ret
  2151                              <1> 
  2152                              <1> .peek:
  2153 0000170E BE[5678]            <1>     mov si, serial_line_buffer + 11
  2154 00001711 E8F4FC              <1>     call parse_peek_args
  2155 00001714 7209                <1>     jc .peek_invalid
  2156 00001716 E854FD              <1>     call peek_dump
  2157                              <1> .peek_done:
  2158 00001719 E83800              <1>     call chat_enable_continuation
  2159 0000171C 30C0                <1>     xor al, al
  2160 0000171E C3                  <1>     ret
  2161                              <1> 
  2162                              <1> .peek_invalid:
  2163 0000171F C606[BB38]00        <1>     mov byte [chat_loop_active], 0
  2164 00001724 BE[5A2D]            <1>     mov si, msg_peek_bad
  2165 00001727 E83EEB              <1>     call print_string
  2166 0000172A B001                <1>     mov al, 1
  2167 0000172C C3                  <1>     ret
  2168                              <1> 
  2169                              <1> .loop_control:
  2170 0000172D 803E[BB38]01        <1>     cmp byte [chat_loop_active], 1
  2171 00001732 7410                <1>     je .loop_ready
  2172 00001734 C606[BB38]01        <1>     mov byte [chat_loop_active], 1
  2173 00001739 C606[BC38]00        <1>     mov byte [chat_loop_steps], 0
  2174 0000173E BE[C92A]            <1>     mov si, msg_chat_loop_enabled
  2175 00001741 E824EB              <1>     call print_string
  2176                              <1> 
  2177                              <1> .loop_ready:
  2178 00001744 30C0                <1>     xor al, al
  2179 00001746 C3                  <1>     ret
  2180                              <1> 
  2181                              <1> .success:
  2182 00001747 E81C00              <1>     call chat_command_should_auto_continue
  2183 0000174A 3C01                <1>     cmp al, 1
  2184 0000174C 7503                <1>     jne .success_done
  2185                              <1> 
  2186 0000174E E80300              <1>     call chat_enable_continuation
  2187                              <1> 
  2188                              <1> .success_done:
  2189 00001751 30C0                <1>     xor al, al
  2190 00001753 C3                  <1>     ret
  2191                              <1> 
  2192                              <1> chat_enable_continuation:
  2193 00001754 803E[BD38]01        <1>     cmp byte [chat_loop_resume], 1
  2194 00001759 7405                <1>     je .enable
  2195 0000175B C606[BC38]00        <1>     mov byte [chat_loop_steps], 0
  2196                              <1> 
  2197                              <1> .enable:
  2198 00001760 C606[BB38]01        <1>     mov byte [chat_loop_active], 1
  2199                              <1> 
  2200 00001765 C3                  <1>     ret
  2201                              <1> 
  2202                              <1> chat_command_should_auto_continue:
  2203 00001766 BE[223B]            <1>     mov si, input_buffer
  2204 00001769 BF[1937]            <1>     mov di, cmd_hardware_list
  2205 0000176C E86BEC              <1>     call streq
  2206 0000176F 3C01                <1>     cmp al, 1
  2207 00001771 7437                <1>     je .yes
  2208                              <1> 
  2209 00001773 BE[223B]            <1>     mov si, input_buffer
  2210 00001776 BF[2737]            <1>     mov di, cmd_memory_map
  2211 00001779 E85EEC              <1>     call streq
  2212 0000177C 3C01                <1>     cmp al, 1
  2213 0000177E 742A                <1>     je .yes
  2214                              <1> 
  2215 00001780 BE[223B]            <1>     mov si, input_buffer
  2216 00001783 BF[5437]            <1>     mov di, cmd_task_list
  2217 00001786 E851EC              <1>     call streq
  2218 00001789 3C01                <1>     cmp al, 1
  2219 0000178B 741D                <1>     je .yes
  2220                              <1> 
  2221 0000178D BE[223B]            <1>     mov si, input_buffer
  2222 00001790 BF[8137]            <1>     mov di, cmd_grep
  2223 00001793 E844EC              <1>     call streq
  2224 00001796 3C01                <1>     cmp al, 1
  2225 00001798 7410                <1>     je .yes
  2226                              <1> 
  2227 0000179A BE[223B]            <1>     mov si, input_buffer
  2228 0000179D BF[B537]            <1>     mov di, cmd_pm32
  2229 000017A0 E837EC              <1>     call streq
  2230 000017A3 3C01                <1>     cmp al, 1
  2231 000017A5 7403                <1>     je .yes
  2232                              <1> 
  2233 000017A7 30C0                <1>     xor al, al
  2234 000017A9 C3                  <1>     ret
  2235                              <1> 
  2236                              <1> .yes:
  2237 000017AA B001                <1>     mov al, 1
  2238 000017AC C3                  <1>     ret
  2239                              <1> 
  2240                              <1> host_send_list_request:
  2241 000017AD BF[4B7A]            <1>     mov di, host_request_buffer
  2242 000017B0 BE[4D33]            <1>     mov si, msg_host_post_list
  2243 000017B3 E874EB              <1>     call buffer_write_string
  2244 000017B6 E8C4EB              <1>     call buffer_write_generation_field
  2245 000017B9 BE[0035]            <1>     mov si, msg_json_close
  2246 000017BC E86BEB              <1>     call buffer_write_string
  2247 000017BF BE[1637]            <1>     mov si, newline
  2248 000017C2 E865EB              <1>     call buffer_write_string
  2249 000017C5 C60500              <1>     mov byte [di], 0
  2250 000017C8 E8CCEB              <1>     call serial_write_buffer
  2251 000017CB C3                  <1>     ret
  2252                              <1> 
  2253                              <1> host_send_spawn_request:
  2254 000017CC BF[4B7A]            <1>     mov di, host_request_buffer
  2255 000017CF BE[7233]            <1>     mov si, msg_host_post_spawn_prefix
  2256 000017D2 E855EB              <1>     call buffer_write_string
  2257 000017D5 BE[3A4B]            <1>     mov si, task_session_buffer
  2258 000017D8 E85AEB              <1>     call buffer_write_json_escaped
  2259 000017DB BE[A333]            <1>     mov si, msg_host_post_spawn_mid
  2260 000017DE E849EB              <1>     call buffer_write_string
  2261 000017E1 BE[5A4B]            <1>     mov si, task_goal_buffer
  2262 000017E4 E84EEB              <1>     call buffer_write_json_escaped
  2263 000017E7 BE[FE34]            <1>     mov si, msg_json_quote
  2264 000017EA E83DEB              <1>     call buffer_write_string
  2265 000017ED E88DEB              <1>     call buffer_write_generation_field
  2266 000017F0 BE[0035]            <1>     mov si, msg_json_close
  2267 000017F3 E834EB              <1>     call buffer_write_string
  2268 000017F6 BE[1637]            <1>     mov si, newline
  2269 000017F9 E82EEB              <1>     call buffer_write_string
  2270 000017FC C60500              <1>     mov byte [di], 0
  2271 000017FF E895EB              <1>     call serial_write_buffer
  2272 00001802 C3                  <1>     ret
  2273                              <1> 
  2274                              <1> host_send_retire_request:
  2275 00001803 BF[4B7A]            <1>     mov di, host_request_buffer
  2276 00001806 BE[AE33]            <1>     mov si, msg_host_post_retire_prefix
  2277 00001809 E81EEB              <1>     call buffer_write_string
  2278 0000180C BE[3A4B]            <1>     mov si, task_session_buffer
  2279 0000180F E823EB              <1>     call buffer_write_json_escaped
  2280 00001812 BE[FE34]            <1>     mov si, msg_json_quote
  2281 00001815 E812EB              <1>     call buffer_write_string
  2282 00001818 E862EB              <1>     call buffer_write_generation_field
  2283 0000181B BE[0035]            <1>     mov si, msg_json_close
  2284 0000181E E809EB              <1>     call buffer_write_string
  2285 00001821 BE[1637]            <1>     mov si, newline
  2286 00001824 E803EB              <1>     call buffer_write_string
  2287 00001827 C60500              <1>     mov byte [di], 0
  2288 0000182A E86AEB              <1>     call serial_write_buffer
  2289 0000182D C3                  <1>     ret
  2290                              <1> 
  2291                              <1> host_send_retire_named:
  2292 0000182E 56                  <1>     push si
  2293 0000182F BF[4B7A]            <1>     mov di, host_request_buffer
  2294 00001832 BE[AE33]            <1>     mov si, msg_host_post_retire_prefix
  2295 00001835 E8F2EA              <1>     call buffer_write_string
  2296 00001838 5E                  <1>     pop si
  2297 00001839 E8F9EA              <1>     call buffer_write_json_escaped
  2298 0000183C BE[FE34]            <1>     mov si, msg_json_quote
  2299 0000183F E8E8EA              <1>     call buffer_write_string
  2300 00001842 E838EB              <1>     call buffer_write_generation_field
  2301 00001845 BE[0035]            <1>     mov si, msg_json_close
  2302 00001848 E8DFEA              <1>     call buffer_write_string
  2303 0000184B BE[1637]            <1>     mov si, newline
  2304 0000184E E8D9EA              <1>     call buffer_write_string
  2305 00001851 C60500              <1>     mov byte [di], 0
  2306 00001854 E840EB              <1>     call serial_write_buffer
  2307 00001857 C3                  <1>     ret
  2308                              <1> 
  2309                              <1> host_send_step_request:
  2310 00001858 BF[4B7A]            <1>     mov di, host_request_buffer
  2311 0000185B BE[E033]            <1>     mov si, msg_host_post_step_prefix
  2312 0000185E E8C9EA              <1>     call buffer_write_string
  2313 00001861 BE[3A4B]            <1>     mov si, task_session_buffer
  2314 00001864 E8CEEA              <1>     call buffer_write_json_escaped
  2315 00001867 BE[1034]            <1>     mov si, msg_host_post_step_mid
  2316 0000186A E8BDEA              <1>     call buffer_write_string
  2317 0000186D BE[FA4B]            <1>     mov si, task_arg_buffer
  2318 00001870 E8C2EA              <1>     call buffer_write_json_escaped
  2319 00001873 BE[FE34]            <1>     mov si, msg_json_quote
  2320 00001876 E8B1EA              <1>     call buffer_write_string
  2321 00001879 E801EB              <1>     call buffer_write_generation_field
  2322 0000187C BE[0035]            <1>     mov si, msg_json_close
  2323 0000187F E8A8EA              <1>     call buffer_write_string
  2324 00001882 BE[1637]            <1>     mov si, newline
  2325 00001885 E8A2EA              <1>     call buffer_write_string
  2326 00001888 C60500              <1>     mov byte [di], 0
  2327 0000188B E809EB              <1>     call serial_write_buffer
  2328 0000188E C3                  <1>     ret
  2329                              <1> 
  2330                              <1> host_send_curl_request:
  2331 0000188F BF[4B7A]            <1>     mov di, host_request_buffer
  2332 00001892 BE[1D34]            <1>     mov si, msg_host_post_curl_prefix
  2333 00001895 E892EA              <1>     call buffer_write_string
  2334 00001898 BE[FA4B]            <1>     mov si, task_arg_buffer
  2335 0000189B E897EA              <1>     call buffer_write_json_escaped
  2336 0000189E BE[FE34]            <1>     mov si, msg_json_quote
  2337 000018A1 E886EA              <1>     call buffer_write_string
  2338 000018A4 E8D6EA              <1>     call buffer_write_generation_field
  2339 000018A7 BE[0035]            <1>     mov si, msg_json_close
  2340 000018AA E87DEA              <1>     call buffer_write_string
  2341 000018AD BE[1637]            <1>     mov si, newline
  2342 000018B0 E877EA              <1>     call buffer_write_string
  2343 000018B3 C60500              <1>     mov byte [di], 0
  2344 000018B6 E8DEEA              <1>     call serial_write_buffer
  2345 000018B9 C3                  <1>     ret
  2346                              <1> 
  2347                              <1> host_send_git_sync_request:
  2348 000018BA BF[4B7A]            <1>     mov di, host_request_buffer
  2349 000018BD BE[4634]            <1>     mov si, msg_host_post_git_sync
  2350 000018C0 E867EA              <1>     call buffer_write_string
  2351 000018C3 E8B7EA              <1>     call buffer_write_generation_field
  2352 000018C6 BE[0035]            <1>     mov si, msg_json_close
  2353 000018C9 E85EEA              <1>     call buffer_write_string
  2354 000018CC BE[1637]            <1>     mov si, newline
  2355 000018CF E858EA              <1>     call buffer_write_string
  2356 000018D2 C60500              <1>     mov byte [di], 0
  2357 000018D5 E8BFEA              <1>     call serial_write_buffer
  2358 000018D8 C3                  <1>     ret
  2359                              <1> 
  2360                              <1> host_send_clone_request:
  2361 000018D9 BF[4B7A]            <1>     mov di, host_request_buffer
  2362 000018DC BE[6634]            <1>     mov si, msg_host_post_clone_prefix
  2363 000018DF E848EA              <1>     call buffer_write_string
  2364 000018E2 BE[3A4B]            <1>     mov si, task_session_buffer
  2365 000018E5 E84DEA              <1>     call buffer_write_json_escaped
  2366 000018E8 BE[C634]            <1>     mov si, msg_host_post_clone_mid
  2367 000018EB E83CEA              <1>     call buffer_write_string
  2368 000018EE BE[4A4B]            <1>     mov si, task_source_buffer
  2369 000018F1 E841EA              <1>     call buffer_write_json_escaped
  2370 000018F4 BE[DB34]            <1>     mov si, msg_host_post_modifier_mid
  2371 000018F7 E830EA              <1>     call buffer_write_string
  2372 000018FA BE[FA4B]            <1>     mov si, task_arg_buffer
  2373 000018FD E835EA              <1>     call buffer_write_json_escaped
  2374 00001900 BE[FE34]            <1>     mov si, msg_json_quote
  2375 00001903 E824EA              <1>     call buffer_write_string
  2376 00001906 E874EA              <1>     call buffer_write_generation_field
  2377 00001909 BE[0035]            <1>     mov si, msg_json_close
  2378 0000190C E81BEA              <1>     call buffer_write_string
  2379 0000190F BE[1637]            <1>     mov si, newline
  2380 00001912 E815EA              <1>     call buffer_write_string
  2381 00001915 C60500              <1>     mov byte [di], 0
  2382 00001918 E87CEA              <1>     call serial_write_buffer
  2383 0000191B C3                  <1>     ret
  2384                              <1> 
  2385                              <1> host_send_adopt_request:
  2386 0000191C BF[4B7A]            <1>     mov di, host_request_buffer
  2387 0000191F BE[9734]            <1>     mov si, msg_host_post_adopt_prefix
  2388 00001922 E805EA              <1>     call buffer_write_string
  2389 00001925 BE[3A4B]            <1>     mov si, task_session_buffer
  2390 00001928 E80AEA              <1>     call buffer_write_json_escaped
  2391 0000192B BE[C634]            <1>     mov si, msg_host_post_clone_mid
  2392 0000192E E8F9E9              <1>     call buffer_write_string
  2393 00001931 BE[4A4B]            <1>     mov si, task_source_buffer
  2394 00001934 E8FEE9              <1>     call buffer_write_json_escaped
  2395 00001937 BE[DB34]            <1>     mov si, msg_host_post_modifier_mid
  2396 0000193A E8EDE9              <1>     call buffer_write_string
  2397 0000193D BE[FA4B]            <1>     mov si, task_arg_buffer
  2398 00001940 E8F2E9              <1>     call buffer_write_json_escaped
  2399 00001943 BE[FE34]            <1>     mov si, msg_json_quote
  2400 00001946 E8E1E9              <1>     call buffer_write_string
  2401 00001949 E831EA              <1>     call buffer_write_generation_field
  2402 0000194C BE[0035]            <1>     mov si, msg_json_close
  2403 0000194F E8D8E9              <1>     call buffer_write_string
  2404 00001952 BE[1637]            <1>     mov si, newline
  2405 00001955 E8D2E9              <1>     call buffer_write_string
  2406 00001958 C60500              <1>     mov byte [di], 0
  2407 0000195B E839EA              <1>     call serial_write_buffer
  2408 0000195E C3                  <1>     ret
     6                                  %include "boot/stage2/03_programs.asm"
     1                              <1> mouse_init:
     2 0000195F E83D00              <1>     call mouse_flush
     3                              <1> 
     4 00001962 E84A00              <1>     call ps2_wait_write
     5 00001965 B0A8                <1>     mov al, 0xa8
     6 00001967 E664                <1>     out PS2_STATUS, al
     7                              <1> 
     8 00001969 E84300              <1>     call ps2_wait_write
     9 0000196C B020                <1>     mov al, 0x20
    10 0000196E E664                <1>     out PS2_STATUS, al
    11 00001970 E84A00              <1>     call ps2_wait_read
    12 00001973 E460                <1>     in al, PS2_DATA
    13 00001975 0C02                <1>     or al, 0x02
    14 00001977 24DF                <1>     and al, 0xdf
    15 00001979 88C3                <1>     mov bl, al
    16                              <1> 
    17 0000197B E83100              <1>     call ps2_wait_write
    18 0000197E B060                <1>     mov al, 0x60
    19 00001980 E664                <1>     out PS2_STATUS, al
    20 00001982 E82A00              <1>     call ps2_wait_write
    21 00001985 88D8                <1>     mov al, bl
    22 00001987 E660                <1>     out PS2_DATA, al
    23                              <1> 
    24 00001989 B0F6                <1>     mov al, 0xf6
    25 0000198B E83D00              <1>     call mouse_send_command
    26 0000198E 3CFA                <1>     cmp al, 0xfa
    27 00001990 750B                <1>     jne .fail
    28                              <1> 
    29 00001992 B0F4                <1>     mov al, 0xf4
    30 00001994 E83400              <1>     call mouse_send_command
    31 00001997 3CFA                <1>     cmp al, 0xfa
    32 00001999 7502                <1>     jne .fail
    33                              <1> 
    34 0000199B F8                  <1>     clc
    35 0000199C C3                  <1>     ret
    36                              <1> 
    37                              <1> .fail:
    38 0000199D F9                  <1>     stc
    39 0000199E C3                  <1>     ret
    40                              <1> 
    41                              <1> mouse_flush:
    42 0000199F 51                  <1>     push cx
    43 000019A0 B9FFFF              <1>     mov cx, 0xffff
    44                              <1> 
    45                              <1> .loop:
    46 000019A3 E464                <1>     in al, PS2_STATUS
    47 000019A5 A801                <1>     test al, 0x01
    48 000019A7 7404                <1>     jz .done
    49 000019A9 E460                <1>     in al, PS2_DATA
    50 000019AB E2F6                <1>     loop .loop
    51                              <1> 
    52                              <1> .done:
    53 000019AD 59                  <1>     pop cx
    54 000019AE C3                  <1>     ret
    55                              <1> 
    56                              <1> ps2_wait_write:
    57 000019AF 51                  <1>     push cx
    58 000019B0 B9FFFF              <1>     mov cx, 0xffff
    59                              <1> 
    60                              <1> .loop:
    61 000019B3 E464                <1>     in al, PS2_STATUS
    62 000019B5 A802                <1>     test al, 0x02
    63 000019B7 7402                <1>     jz .done
    64 000019B9 E2F8                <1>     loop .loop
    65                              <1> 
    66                              <1> .done:
    67 000019BB 59                  <1>     pop cx
    68 000019BC C3                  <1>     ret
    69                              <1> 
    70                              <1> ps2_wait_read:
    71 000019BD 51                  <1>     push cx
    72 000019BE B9FFFF              <1>     mov cx, 0xffff
    73                              <1> 
    74                              <1> .loop:
    75 000019C1 E464                <1>     in al, PS2_STATUS
    76 000019C3 A801                <1>     test al, 0x01
    77 000019C5 7502                <1>     jnz .done
    78 000019C7 E2F8                <1>     loop .loop
    79                              <1> 
    80                              <1> .done:
    81 000019C9 59                  <1>     pop cx
    82 000019CA C3                  <1>     ret
    83                              <1> 
    84                              <1> mouse_send_command:
    85 000019CB 53                  <1>     push bx
    86 000019CC 88C3                <1>     mov bl, al
    87 000019CE E8DEFF              <1>     call ps2_wait_write
    88 000019D1 B0D4                <1>     mov al, 0xd4
    89 000019D3 E664                <1>     out PS2_STATUS, al
    90 000019D5 E8D7FF              <1>     call ps2_wait_write
    91 000019D8 88D8                <1>     mov al, bl
    92 000019DA E660                <1>     out PS2_DATA, al
    93 000019DC E8DEFF              <1>     call ps2_wait_read
    94 000019DF E460                <1>     in al, PS2_DATA
    95 000019E1 5B                  <1>     pop bx
    96 000019E2 C3                  <1>     ret
    97                              <1> 
    98                              <1> editor_program:
    99 000019E3 E8C8E7              <1>     call set_text_mode
   100 000019E6 C706[BE4F]0000      <1>     mov word [editor_length], 0
   101 000019EC BE[0235]            <1>     mov si, msg_editor_intro
   102 000019EF E876E8              <1>     call print_string
   103                              <1> 
   104                              <1> .loop:
   105 000019F2 E84DE7              <1>     call read_input_char
   106 000019F5 3C1B                <1>     cmp al, 27
   107 000019F7 745C                <1>     je .exit
   108 000019F9 3C08                <1>     cmp al, 0x08
   109 000019FB 7446                <1>     je .backspace
   110 000019FD 3C7F                <1>     cmp al, 0x7f
   111 000019FF 7442                <1>     je .backspace
   112 00001A01 3C0D                <1>     cmp al, 0x0d
   113 00001A03 741C                <1>     je .newline
   114 00001A05 3C20                <1>     cmp al, 32
   115 00001A07 72E9                <1>     jb .loop
   116                              <1> 
   117 00001A09 8B1E[BE4F]          <1>     mov bx, [editor_length]
   118 00001A0D 81FBFF27            <1>     cmp bx, EDITOR_CAPACITY - 1
   119 00001A11 73DF                <1>     jae .loop
   120 00001A13 8887[C04F]          <1>     mov [editor_buffer + bx], al
   121 00001A17 43                  <1>     inc bx
   122 00001A18 891E[BE4F]          <1>     mov [editor_length], bx
   123 00001A1C E854E8              <1>     call print_char
   124 00001A1F EBD1                <1>     jmp .loop
   125                              <1> 
   126                              <1> .newline:
   127 00001A21 8B1E[BE4F]          <1>     mov bx, [editor_length]
   128 00001A25 81FBFE27            <1>     cmp bx, EDITOR_CAPACITY - 2
   129 00001A29 73C7                <1>     jae .loop
   130 00001A2B C687[C04F]0D        <1>     mov byte [editor_buffer + bx], 0x0d
   131 00001A30 43                  <1>     inc bx
   132 00001A31 C687[C04F]0A        <1>     mov byte [editor_buffer + bx], 0x0a
   133 00001A36 43                  <1>     inc bx
   134 00001A37 891E[BE4F]          <1>     mov [editor_length], bx
   135 00001A3B BE[1637]            <1>     mov si, newline
   136 00001A3E E827E8              <1>     call print_string
   137 00001A41 EBAF                <1>     jmp .loop
   138                              <1> 
   139                              <1> .backspace:
   140 00001A43 8B1E[BE4F]          <1>     mov bx, [editor_length]
   141 00001A47 85DB                <1>     test bx, bx
   142 00001A49 74A7                <1>     jz .loop
   143 00001A4B 4B                  <1>     dec bx
   144 00001A4C 891E[BE4F]          <1>     mov [editor_length], bx
   145 00001A50 E80900              <1>     call editor_redraw
   146 00001A53 EB9D                <1>     jmp .loop
   147                              <1> 
   148                              <1> .exit:
   149 00001A55 BE[5835]            <1>     mov si, msg_editor_exit
   150 00001A58 E80DE8              <1>     call print_string
   151 00001A5B C3                  <1>     ret
   152                              <1> 
   153                              <1> editor_redraw:
   154 00001A5C E84FE7              <1>     call set_text_mode
   155 00001A5F BE[0235]            <1>     mov si, msg_editor_intro
   156 00001A62 E803E8              <1>     call print_string
   157 00001A65 8B0E[BE4F]          <1>     mov cx, [editor_length]
   158 00001A69 BE[C04F]            <1>     mov si, editor_buffer
   159                              <1> 
   160                              <1> .loop:
   161 00001A6C 85C9                <1>     test cx, cx
   162 00001A6E 7407                <1>     jz .done
   163 00001A70 AC                  <1>     lodsb
   164 00001A71 E8FFE7              <1>     call print_char
   165 00001A74 49                  <1>     dec cx
   166 00001A75 EBF5                <1>     jmp .loop
   167                              <1> 
   168                              <1> .done:
   169 00001A77 C3                  <1>     ret
   170                              <1> 
   171                              <1> grep_program:
   172 00001A78 E833E7              <1>     call set_text_mode
   173 00001A7B BE[6935]            <1>     mov si, msg_grep_intro
   174 00001A7E E8E7E7              <1>     call print_string
   175 00001A81 E83C00              <1>     call navigator_configure_editor_text
   176 00001A84 833E[BE4F]00        <1>     cmp word [editor_length], 0
   177 00001A89 7507                <1>     jne .search
   178 00001A8B BE[A035]            <1>     mov si, msg_grep_empty
   179 00001A8E E8D7E7              <1>     call print_string
   180 00001A91 C3                  <1>     ret
   181                              <1> 
   182                              <1> .search:
   183 00001A92 E86D00              <1>     call navigator_prompt_search
   184 00001A95 C3                  <1>     ret
   185                              <1> 
   186                              <1> search_program:
   187 00001A96 E815E7              <1>     call set_text_mode
   188 00001A99 E86600              <1>     call navigator_prompt_search
   189 00001A9C C3                  <1>     ret
   190                              <1> 
   191                              <1> next_program:
   192 00001A9D E80EE7              <1>     call set_text_mode
   193 00001AA0 E84301              <1>     call navigator_next_match
   194 00001AA3 C3                  <1>     ret
   195                              <1> 
   196                              <1> prev_program:
   197 00001AA4 E807E7              <1>     call set_text_mode
   198 00001AA7 E87901              <1>     call navigator_prev_match
   199 00001AAA C3                  <1>     ret
   200                              <1> 
   201                              <1> forward_program:
   202 00001AAB E800E7              <1>     call set_text_mode
   203 00001AAE E8B301              <1>     call navigator_move_forward
   204 00001AB1 C3                  <1>     ret
   205                              <1> 
   206                              <1> back_program:
   207 00001AB2 E8F9E6              <1>     call set_text_mode
   208 00001AB5 E8E801              <1>     call navigator_move_back
   209 00001AB8 C3                  <1>     ret
   210                              <1> 
   211                              <1> view_program:
   212 00001AB9 E8F2E6              <1>     call set_text_mode
   213 00001ABC E81802              <1>     call navigator_view_current_window
   214 00001ABF C3                  <1>     ret
   215                              <1> 
   216                              <1> navigator_configure_editor_text:
   217 00001AC0 31C0                <1>     xor ax, ax
   218 00001AC2 C606[C077]01        <1>     mov byte [navigator_source], NAV_SOURCE_EDITOR
   219 00001AC7 C606[C177]01        <1>     mov byte [navigator_render_mode], NAV_RENDER_TEXT
   220 00001ACC C606[C277]00        <1>     mov byte [navigator_match_active], 0
   221 00001AD1 A3[C377]            <1>     mov [navigator_cursor], ax
   222 00001AD4 C706[C577]4000      <1>     mov word [navigator_window], NAV_TEXT_WINDOW
   223 00001ADA A3[C777]            <1>     mov [navigator_match_offset], ax
   224 00001ADD A3[C977]            <1>     mov [navigator_needle_length], ax
   225 00001AE0 C3                  <1>     ret
   226                              <1> 
   227                              <1> navigator_configure_memory_hex:
   228 00001AE1 31C0                <1>     xor ax, ax
   229 00001AE3 C606[C077]02        <1>     mov byte [navigator_source], NAV_SOURCE_MEMORY
   230 00001AE8 C606[C177]02        <1>     mov byte [navigator_render_mode], NAV_RENDER_HEX
   231 00001AED C606[C277]00        <1>     mov byte [navigator_match_active], 0
   232 00001AF2 A3[C377]            <1>     mov [navigator_cursor], ax
   233 00001AF5 C706[C577]1000      <1>     mov word [navigator_window], NAV_HEX_WINDOW
   234 00001AFB A3[C777]            <1>     mov [navigator_match_offset], ax
   235 00001AFE A3[C977]            <1>     mov [navigator_needle_length], ax
   236 00001B01 C3                  <1>     ret
   237                              <1> 
   238                              <1> navigator_prompt_search:
   239 00001B02 E8FC01              <1>     call navigator_require_source
   240 00001B05 722E                <1>     jc .done
   241 00001B07 E81902              <1>     call navigator_get_source_span
   242 00001B0A 7229                <1>     jc .done
   243 00001B0C 85C0                <1>     test ax, ax
   244 00001B0E 7507                <1>     jnz .prompt
   245 00001B10 BE[3136]            <1>     mov si, msg_view_empty
   246 00001B13 E852E7              <1>     call print_string
   247 00001B16 C3                  <1>     ret
   248                              <1> 
   249                              <1> .prompt:
   250 00001B17 BE[EA36]            <1>     mov si, prompt_search
   251 00001B1A E84BE7              <1>     call print_string
   252 00001B1D BF[223B]            <1>     mov di, input_buffer
   253 00001B20 B9FF0F              <1>     mov cx, INPUT_MAX
   254 00001B23 E8D1E5              <1>     call read_line
   255 00001B26 803E[223B]00        <1>     cmp byte [input_buffer], 0
   256 00001B2B 7408                <1>     je .done
   257 00001B2D E80600              <1>     call navigator_store_needle_from_input
   258 00001B30 7203                <1>     jc .done
   259 00001B32 E88200              <1>     call navigator_search_first
   260                              <1> 
   261                              <1> .done:
   262 00001B35 C3                  <1>     ret
   263                              <1> 
   264                              <1> navigator_store_needle_from_input:
   265 00001B36 50                  <1>     push ax
   266 00001B37 53                  <1>     push bx
   267 00001B38 51                  <1>     push cx
   268 00001B39 52                  <1>     push dx
   269 00001B3A 56                  <1>     push si
   270 00001B3B 57                  <1>     push di
   271 00001B3C BE[223B]            <1>     mov si, input_buffer
   272 00001B3F 803C30              <1>     cmp byte [si], '0'
   273 00001B42 7509                <1>     jne .find_space
   274 00001B44 8A4401              <1>     mov al, [si + 1]
   275 00001B47 0C20                <1>     or al, 0x20
   276 00001B49 3C78                <1>     cmp al, 'x'
   277 00001B4B 740F                <1>     je .hex
   278                              <1> 
   279                              <1> .find_space:
   280 00001B4D 89F7                <1>     mov di, si
   281                              <1> 
   282                              <1> .space_loop:
   283 00001B4F 8A05                <1>     mov al, [di]
   284 00001B51 84C0                <1>     test al, al
   285 00001B53 7434                <1>     jz .literal
   286 00001B55 3C20                <1>     cmp al, ' '
   287 00001B57 7403                <1>     je .hex
   288 00001B59 47                  <1>     inc di
   289 00001B5A EBF3                <1>     jmp .space_loop
   290                              <1> 
   291                              <1> .hex:
   292 00001B5C BE[223B]            <1>     mov si, input_buffer
   293 00001B5F 31DB                <1>     xor bx, bx
   294                              <1> 
   295                              <1> .hex_loop:
   296 00001B61 E891E8              <1>     call skip_spaces
   297 00001B64 803C00              <1>     cmp byte [si], 0
   298 00001B67 7414                <1>     je .hex_done
   299 00001B69 56                  <1>     push si
   300 00001B6A E8E5F7              <1>     call parse_hex_byte
   301 00001B6D 7219                <1>     jc .hex_fail
   302 00001B6F 5A                  <1>     pop dx
   303 00001B70 81FB8000            <1>     cmp bx, NAV_NEEDLE_MAX
   304 00001B74 7333                <1>     jae .too_long
   305 00001B76 8887[CB77]          <1>     mov [navigator_needle + bx], al
   306 00001B7A 43                  <1>     inc bx
   307 00001B7B EBE4                <1>     jmp .hex_loop
   308                              <1> 
   309                              <1> .hex_done:
   310 00001B7D 85DB                <1>     test bx, bx
   311 00001B7F 7408                <1>     jz .literal
   312 00001B81 891E[C977]          <1>     mov [navigator_needle_length], bx
   313 00001B85 F8                  <1>     clc
   314 00001B86 EB28                <1>     jmp .done
   315                              <1> 
   316                              <1> .hex_fail:
   317 00001B88 5E                  <1>     pop si
   318                              <1> 
   319                              <1> .literal:
   320 00001B89 BE[223B]            <1>     mov si, input_buffer
   321 00001B8C 31DB                <1>     xor bx, bx
   322                              <1> 
   323                              <1> .literal_loop:
   324 00001B8E 8A04                <1>     mov al, [si]
   325 00001B90 84C0                <1>     test al, al
   326 00001B92 740E                <1>     jz .literal_done
   327 00001B94 81FB8000            <1>     cmp bx, NAV_NEEDLE_MAX
   328 00001B98 730F                <1>     jae .too_long
   329 00001B9A 8887[CB77]          <1>     mov [navigator_needle + bx], al
   330 00001B9E 46                  <1>     inc si
   331 00001B9F 43                  <1>     inc bx
   332 00001BA0 EBEC                <1>     jmp .literal_loop
   333                              <1> 
   334                              <1> .literal_done:
   335 00001BA2 891E[C977]          <1>     mov [navigator_needle_length], bx
   336 00001BA6 F8                  <1>     clc
   337 00001BA7 EB07                <1>     jmp .done
   338                              <1> 
   339                              <1> .too_long:
   340 00001BA9 BE[1636]            <1>     mov si, msg_search_long
   341 00001BAC E8B9E6              <1>     call print_string
   342 00001BAF F9                  <1>     stc
   343                              <1> 
   344                              <1> .done:
   345 00001BB0 5F                  <1>     pop di
   346 00001BB1 5E                  <1>     pop si
   347 00001BB2 5A                  <1>     pop dx
   348 00001BB3 59                  <1>     pop cx
   349 00001BB4 5B                  <1>     pop bx
   350 00001BB5 58                  <1>     pop ax
   351 00001BB6 C3                  <1>     ret
   352                              <1> 
   353                              <1> navigator_search_first:
   354 00001BB7 E84701              <1>     call navigator_require_source
   355 00001BBA 7229                <1>     jc .done
   356 00001BBC E85301              <1>     call navigator_require_pattern
   357 00001BBF 7224                <1>     jc .done
   358 00001BC1 E85F01              <1>     call navigator_get_source_span
   359 00001BC4 721F                <1>     jc .done
   360 00001BC6 85C0                <1>     test ax, ax
   361 00001BC8 7507                <1>     jnz .search
   362 00001BCA BE[3136]            <1>     mov si, msg_view_empty
   363 00001BCD E898E6              <1>     call print_string
   364 00001BD0 C3                  <1>     ret
   365                              <1> 
   366                              <1> .search:
   367 00001BD1 31D2                <1>     xor dx, dx
   368 00001BD3 E8B001              <1>     call navigator_find_forward_from_dx
   369 00001BD6 7207                <1>     jc .not_found
   370 00001BD8 E82802              <1>     call navigator_center_on_match
   371 00001BDB E8F900              <1>     call navigator_view_current_window
   372 00001BDE C3                  <1>     ret
   373                              <1> 
   374                              <1> .not_found:
   375 00001BDF BE[0136]            <1>     mov si, msg_search_none
   376 00001BE2 E883E6              <1>     call print_string
   377                              <1> 
   378                              <1> .done:
   379 00001BE5 C3                  <1>     ret
   380                              <1> 
   381                              <1> navigator_next_match:
   382 00001BE6 E81801              <1>     call navigator_require_source
   383 00001BE9 7237                <1>     jc .done
   384 00001BEB E82401              <1>     call navigator_require_pattern
   385 00001BEE 7232                <1>     jc .done
   386 00001BF0 E83001              <1>     call navigator_get_source_span
   387 00001BF3 722D                <1>     jc .done
   388 00001BF5 85C0                <1>     test ax, ax
   389 00001BF7 7507                <1>     jnz .search
   390 00001BF9 BE[3136]            <1>     mov si, msg_view_empty
   391 00001BFC E869E6              <1>     call print_string
   392 00001BFF C3                  <1>     ret
   393                              <1> 
   394                              <1> .search:
   395 00001C00 8B16[C377]          <1>     mov dx, [navigator_cursor]
   396 00001C04 803E[C277]01        <1>     cmp byte [navigator_match_active], 1
   397 00001C09 7504                <1>     jne .find
   398 00001C0B 8B16[C777]          <1>     mov dx, [navigator_match_offset]
   399                              <1> 
   400                              <1> .find:
   401 00001C0F 42                  <1>     inc dx
   402 00001C10 E87301              <1>     call navigator_find_forward_from_dx
   403 00001C13 7207                <1>     jc .not_found
   404 00001C15 E8EB01              <1>     call navigator_center_on_match
   405 00001C18 E8BC00              <1>     call navigator_view_current_window
   406 00001C1B C3                  <1>     ret
   407                              <1> 
   408                              <1> .not_found:
   409 00001C1C BE[0136]            <1>     mov si, msg_search_none
   410 00001C1F E846E6              <1>     call print_string
   411                              <1> 
   412                              <1> .done:
   413 00001C22 C3                  <1>     ret
   414                              <1> 
   415                              <1> navigator_prev_match:
   416 00001C23 E8DB00              <1>     call navigator_require_source
   417 00001C26 723B                <1>     jc .done
   418 00001C28 E8E700              <1>     call navigator_require_pattern
   419 00001C2B 7236                <1>     jc .done
   420 00001C2D E8F300              <1>     call navigator_get_source_span
   421 00001C30 7231                <1>     jc .done
   422 00001C32 85C0                <1>     test ax, ax
   423 00001C34 7507                <1>     jnz .search
   424 00001C36 BE[3136]            <1>     mov si, msg_view_empty
   425 00001C39 E82CE6              <1>     call print_string
   426 00001C3C C3                  <1>     ret
   427                              <1> 
   428                              <1> .search:
   429 00001C3D 8B16[C377]          <1>     mov dx, [navigator_cursor]
   430 00001C41 803E[C277]01        <1>     cmp byte [navigator_match_active], 1
   431 00001C46 7509                <1>     jne .find
   432 00001C48 8B16[C777]          <1>     mov dx, [navigator_match_offset]
   433 00001C4C 85D2                <1>     test dx, dx
   434 00001C4E 740D                <1>     jz .not_found
   435 00001C50 4A                  <1>     dec dx
   436                              <1> 
   437                              <1> .find:
   438 00001C51 E85C01              <1>     call navigator_find_backward_from_dx
   439 00001C54 7207                <1>     jc .not_found
   440 00001C56 E8AA01              <1>     call navigator_center_on_match
   441 00001C59 E87B00              <1>     call navigator_view_current_window
   442 00001C5C C3                  <1>     ret
   443                              <1> 
   444                              <1> .not_found:
   445 00001C5D BE[0136]            <1>     mov si, msg_search_none
   446 00001C60 E805E6              <1>     call print_string
   447                              <1> 
   448                              <1> .done:
   449 00001C63 C3                  <1>     ret
   450                              <1> 
   451                              <1> navigator_move_forward:
   452 00001C64 E89A00              <1>     call navigator_require_source
   453 00001C67 7236                <1>     jc .done
   454 00001C69 E8B700              <1>     call navigator_get_source_span
   455 00001C6C 7231                <1>     jc .done
   456 00001C6E 85C0                <1>     test ax, ax
   457 00001C70 7507                <1>     jnz .move
   458 00001C72 BE[3136]            <1>     mov si, msg_view_empty
   459 00001C75 E8F0E5              <1>     call print_string
   460 00001C78 C3                  <1>     ret
   461                              <1> 
   462                              <1> .move:
   463 00001C79 E8C700              <1>     call navigator_clamp_view_state
   464 00001C7C E8A400              <1>     call navigator_get_source_span
   465 00001C7F 8B16[C377]          <1>     mov dx, [navigator_cursor]
   466 00001C83 8B0E[C577]          <1>     mov cx, [navigator_window]
   467 00001C87 01CA                <1>     add dx, cx
   468 00001C89 89C3                <1>     mov bx, ax
   469 00001C8B 29CB                <1>     sub bx, cx
   470 00001C8D 39DA                <1>     cmp dx, bx
   471 00001C8F 7602                <1>     jbe .store
   472 00001C91 89DA                <1>     mov dx, bx
   473                              <1> 
   474                              <1> .store:
   475 00001C93 8916[C377]          <1>     mov [navigator_cursor], dx
   476 00001C97 C606[C277]00        <1>     mov byte [navigator_match_active], 0
   477 00001C9C E83800              <1>     call navigator_view_current_window
   478                              <1> 
   479                              <1> .done:
   480 00001C9F C3                  <1>     ret
   481                              <1> 
   482                              <1> navigator_move_back:
   483 00001CA0 E85E00              <1>     call navigator_require_source
   484 00001CA3 7231                <1>     jc .done
   485 00001CA5 E87B00              <1>     call navigator_get_source_span
   486 00001CA8 722C                <1>     jc .done
   487 00001CAA 85C0                <1>     test ax, ax
   488 00001CAC 7507                <1>     jnz .move
   489 00001CAE BE[3136]            <1>     mov si, msg_view_empty
   490 00001CB1 E8B4E5              <1>     call print_string
   491 00001CB4 C3                  <1>     ret
   492                              <1> 
   493                              <1> .move:
   494 00001CB5 E88B00              <1>     call navigator_clamp_view_state
   495 00001CB8 8B16[C377]          <1>     mov dx, [navigator_cursor]
   496 00001CBC 8B0E[C577]          <1>     mov cx, [navigator_window]
   497 00001CC0 39CA                <1>     cmp dx, cx
   498 00001CC2 7304                <1>     jae .subtract
   499 00001CC4 31D2                <1>     xor dx, dx
   500 00001CC6 EB02                <1>     jmp .store
   501                              <1> 
   502                              <1> .subtract:
   503 00001CC8 29CA                <1>     sub dx, cx
   504                              <1> 
   505                              <1> .store:
   506 00001CCA 8916[C377]          <1>     mov [navigator_cursor], dx
   507 00001CCE C606[C277]00        <1>     mov byte [navigator_match_active], 0
   508 00001CD3 E80100              <1>     call navigator_view_current_window
   509                              <1> 
   510                              <1> .done:
   511 00001CD6 C3                  <1>     ret
   512                              <1> 
   513                              <1> navigator_view_current_window:
   514 00001CD7 E82700              <1>     call navigator_require_source
   515 00001CDA 7224                <1>     jc .done
   516 00001CDC E84400              <1>     call navigator_get_source_span
   517 00001CDF 721F                <1>     jc .done
   518 00001CE1 85C0                <1>     test ax, ax
   519 00001CE3 7507                <1>     jnz .render
   520 00001CE5 BE[3136]            <1>     mov si, msg_view_empty
   521 00001CE8 E87DE5              <1>     call print_string
   522 00001CEB C3                  <1>     ret
   523                              <1> 
   524                              <1> .render:
   525 00001CEC E85400              <1>     call navigator_clamp_view_state
   526 00001CEF 803E[C177]01        <1>     cmp byte [navigator_render_mode], NAV_RENDER_TEXT
   527 00001CF4 7407                <1>     je .text
   528 00001CF6 BE[5636]            <1>     mov si, msg_view_hex_header
   529 00001CF9 E84201              <1>     call navigator_render_hex_with_prefix
   530 00001CFC C3                  <1>     ret
   531                              <1> 
   532                              <1> .text:
   533 00001CFD E88A01              <1>     call navigator_render_text_window
   534                              <1> 
   535                              <1> .done:
   536 00001D00 C3                  <1>     ret
   537                              <1> 
   538                              <1> navigator_require_source:
   539 00001D01 803E[C077]00        <1>     cmp byte [navigator_source], NAV_SOURCE_NONE
   540 00001D06 7508                <1>     jne .ok
   541 00001D08 BE[BF35]            <1>     mov si, msg_navigator_none
   542 00001D0B E85AE5              <1>     call print_string
   543 00001D0E F9                  <1>     stc
   544 00001D0F C3                  <1>     ret
   545                              <1> 
   546                              <1> .ok:
   547 00001D10 F8                  <1>     clc
   548 00001D11 C3                  <1>     ret
   549                              <1> 
   550                              <1> navigator_require_pattern:
   551 00001D12 833E[C977]00        <1>     cmp word [navigator_needle_length], 0
   552 00001D17 7508                <1>     jne .ok
   553 00001D19 BE[E335]            <1>     mov si, msg_search_needed
   554 00001D1C E849E5              <1>     call print_string
   555 00001D1F F9                  <1>     stc
   556 00001D20 C3                  <1>     ret
   557                              <1> 
   558                              <1> .ok:
   559 00001D21 F8                  <1>     clc
   560 00001D22 C3                  <1>     ret
   561                              <1> 
   562                              <1> navigator_get_source_span:
   563 00001D23 803E[C077]01        <1>     cmp byte [navigator_source], NAV_SOURCE_EDITOR
   564 00001D28 7409                <1>     je .editor
   565 00001D2A 803E[C077]02        <1>     cmp byte [navigator_source], NAV_SOURCE_MEMORY
   566 00001D2F 740A                <1>     je .memory
   567 00001D31 F9                  <1>     stc
   568 00001D32 C3                  <1>     ret
   569                              <1> 
   570                              <1> .editor:
   571 00001D33 BB[C04F]            <1>     mov bx, editor_buffer
   572 00001D36 A1[BE4F]            <1>     mov ax, [editor_length]
   573 00001D39 F8                  <1>     clc
   574 00001D3A C3                  <1>     ret
   575                              <1> 
   576                              <1> .memory:
   577 00001D3B BB0080              <1>     mov bx, 0x8000
   578 00001D3E B8[5BFD]            <1>     mov ax, stage2_image_end - 0x8000
   579 00001D41 F8                  <1>     clc
   580 00001D42 C3                  <1>     ret
   581                              <1> 
   582                              <1> navigator_clamp_view_state:
   583 00001D43 50                  <1>     push ax
   584 00001D44 53                  <1>     push bx
   585 00001D45 51                  <1>     push cx
   586 00001D46 52                  <1>     push dx
   587 00001D47 E8D9FF              <1>     call navigator_get_source_span
   588 00001D4A 7235                <1>     jc .done
   589 00001D4C 8B0E[C577]          <1>     mov cx, [navigator_window]
   590 00001D50 85C9                <1>     test cx, cx
   591 00001D52 7513                <1>     jnz .have_window
   592 00001D54 803E[C177]01        <1>     cmp byte [navigator_render_mode], NAV_RENDER_TEXT
   593 00001D59 7505                <1>     jne .hex_default
   594 00001D5B B94000              <1>     mov cx, NAV_TEXT_WINDOW
   595 00001D5E EB03                <1>     jmp .set_window
   596                              <1> 
   597                              <1> .hex_default:
   598 00001D60 B91000              <1>     mov cx, NAV_HEX_WINDOW
   599                              <1> 
   600                              <1> .set_window:
   601 00001D63 890E[C577]          <1>     mov [navigator_window], cx
   602                              <1> 
   603                              <1> .have_window:
   604 00001D67 39C1                <1>     cmp cx, ax
   605 00001D69 7606                <1>     jbe .window_ok
   606 00001D6B 89C1                <1>     mov cx, ax
   607 00001D6D 890E[C577]          <1>     mov [navigator_window], cx
   608                              <1> 
   609                              <1> .window_ok:
   610 00001D71 8B16[C377]          <1>     mov dx, [navigator_cursor]
   611 00001D75 89C3                <1>     mov bx, ax
   612 00001D77 29CB                <1>     sub bx, cx
   613 00001D79 39DA                <1>     cmp dx, bx
   614 00001D7B 7604                <1>     jbe .done
   615 00001D7D 891E[C377]          <1>     mov [navigator_cursor], bx
   616                              <1> 
   617                              <1> .done:
   618 00001D81 5A                  <1>     pop dx
   619 00001D82 59                  <1>     pop cx
   620 00001D83 5B                  <1>     pop bx
   621 00001D84 58                  <1>     pop ax
   622 00001D85 C3                  <1>     ret
   623                              <1> 
   624                              <1> navigator_find_forward_from_dx:
   625 00001D86 50                  <1>     push ax
   626 00001D87 53                  <1>     push bx
   627 00001D88 51                  <1>     push cx
   628 00001D89 E897FF              <1>     call navigator_get_source_span
   629 00001D8C 721A                <1>     jc .not_found
   630 00001D8E 8B0E[C977]          <1>     mov cx, [navigator_needle_length]
   631 00001D92 39C1                <1>     cmp cx, ax
   632 00001D94 7712                <1>     ja .not_found
   633 00001D96 29C8                <1>     sub ax, cx
   634 00001D98 39C2                <1>     cmp dx, ax
   635 00001D9A 770C                <1>     ja .not_found
   636                              <1> 
   637                              <1> .loop:
   638 00001D9C 50                  <1>     push ax
   639 00001D9D E83C00              <1>     call navigator_candidate_matches
   640 00001DA0 58                  <1>     pop ax
   641 00001DA1 7308                <1>     jnc .found
   642 00001DA3 42                  <1>     inc dx
   643 00001DA4 39C2                <1>     cmp dx, ax
   644 00001DA6 76F4                <1>     jbe .loop
   645                              <1> 
   646                              <1> .not_found:
   647 00001DA8 F9                  <1>     stc
   648 00001DA9 EB01                <1>     jmp .done
   649                              <1> 
   650                              <1> .found:
   651 00001DAB F8                  <1>     clc
   652                              <1> 
   653                              <1> .done:
   654 00001DAC 59                  <1>     pop cx
   655 00001DAD 5B                  <1>     pop bx
   656 00001DAE 58                  <1>     pop ax
   657 00001DAF C3                  <1>     ret
   658                              <1> 
   659                              <1> navigator_find_backward_from_dx:
   660 00001DB0 50                  <1>     push ax
   661 00001DB1 53                  <1>     push bx
   662 00001DB2 51                  <1>     push cx
   663 00001DB3 E86DFF              <1>     call navigator_get_source_span
   664 00001DB6 721C                <1>     jc .not_found
   665 00001DB8 8B0E[C977]          <1>     mov cx, [navigator_needle_length]
   666 00001DBC 39C1                <1>     cmp cx, ax
   667 00001DBE 7714                <1>     ja .not_found
   668 00001DC0 29C8                <1>     sub ax, cx
   669 00001DC2 39C2                <1>     cmp dx, ax
   670 00001DC4 7602                <1>     jbe .loop
   671 00001DC6 89C2                <1>     mov dx, ax
   672                              <1> 
   673                              <1> .loop:
   674 00001DC8 E81100              <1>     call navigator_candidate_matches
   675 00001DCB 730A                <1>     jnc .found
   676 00001DCD 85D2                <1>     test dx, dx
   677 00001DCF 7403                <1>     jz .not_found
   678 00001DD1 4A                  <1>     dec dx
   679 00001DD2 EBF4                <1>     jmp .loop
   680                              <1> 
   681                              <1> .not_found:
   682 00001DD4 F9                  <1>     stc
   683 00001DD5 EB01                <1>     jmp .done
   684                              <1> 
   685                              <1> .found:
   686 00001DD7 F8                  <1>     clc
   687                              <1> 
   688                              <1> .done:
   689 00001DD8 59                  <1>     pop cx
   690 00001DD9 5B                  <1>     pop bx
   691 00001DDA 58                  <1>     pop ax
   692 00001DDB C3                  <1>     ret
   693                              <1> 
   694                              <1> navigator_candidate_matches:
   695 00001DDC 50                  <1>     push ax
   696 00001DDD 51                  <1>     push cx
   697 00001DDE 56                  <1>     push si
   698 00001DDF 57                  <1>     push di
   699 00001DE0 BE[CB77]            <1>     mov si, navigator_needle
   700 00001DE3 89DF                <1>     mov di, bx
   701 00001DE5 01D7                <1>     add di, dx
   702 00001DE7 8B0E[C977]          <1>     mov cx, [navigator_needle_length]
   703                              <1> 
   704                              <1> .loop:
   705 00001DEB 85C9                <1>     test cx, cx
   706 00001DED 740B                <1>     jz .match
   707 00001DEF 8A04                <1>     mov al, [si]
   708 00001DF1 3A05                <1>     cmp al, [di]
   709 00001DF3 7508                <1>     jne .miss
   710 00001DF5 46                  <1>     inc si
   711 00001DF6 47                  <1>     inc di
   712 00001DF7 49                  <1>     dec cx
   713 00001DF8 EBF1                <1>     jmp .loop
   714                              <1> 
   715                              <1> .match:
   716 00001DFA F8                  <1>     clc
   717 00001DFB EB01                <1>     jmp .done
   718                              <1> 
   719                              <1> .miss:
   720 00001DFD F9                  <1>     stc
   721                              <1> 
   722                              <1> .done:
   723 00001DFE 5F                  <1>     pop di
   724 00001DFF 5E                  <1>     pop si
   725 00001E00 59                  <1>     pop cx
   726 00001E01 58                  <1>     pop ax
   727 00001E02 C3                  <1>     ret
   728                              <1> 
   729                              <1> navigator_center_on_match:
   730 00001E03 50                  <1>     push ax
   731 00001E04 53                  <1>     push bx
   732 00001E05 51                  <1>     push cx
   733 00001E06 56                  <1>     push si
   734 00001E07 8916[C777]          <1>     mov [navigator_match_offset], dx
   735 00001E0B C606[C277]01        <1>     mov byte [navigator_match_active], 1
   736 00001E10 E830FF              <1>     call navigator_clamp_view_state
   737 00001E13 E80DFF              <1>     call navigator_get_source_span
   738 00001E16 7221                <1>     jc .done
   739 00001E18 8B0E[C577]          <1>     mov cx, [navigator_window]
   740 00001E1C 89C3                <1>     mov bx, ax
   741 00001E1E 29CB                <1>     sub bx, cx
   742 00001E20 89D0                <1>     mov ax, dx
   743 00001E22 89CE                <1>     mov si, cx
   744 00001E24 D1EE                <1>     shr si, 1
   745 00001E26 39F0                <1>     cmp ax, si
   746 00001E28 7304                <1>     jae .subtract
   747 00001E2A 31C0                <1>     xor ax, ax
   748 00001E2C EB02                <1>     jmp .clip
   749                              <1> 
   750                              <1> .subtract:
   751 00001E2E 29F0                <1>     sub ax, si
   752                              <1> 
   753                              <1> .clip:
   754 00001E30 39D8                <1>     cmp ax, bx
   755 00001E32 7602                <1>     jbe .store
   756 00001E34 89D8                <1>     mov ax, bx
   757                              <1> 
   758                              <1> .store:
   759 00001E36 A3[C377]            <1>     mov [navigator_cursor], ax
   760                              <1> 
   761                              <1> .done:
   762 00001E39 5E                  <1>     pop si
   763 00001E3A 59                  <1>     pop cx
   764 00001E3B 5B                  <1>     pop bx
   765 00001E3C 58                  <1>     pop ax
   766 00001E3D C3                  <1>     ret
   767                              <1> 
   768                              <1> navigator_render_hex_with_prefix:
   769 00001E3E 50                  <1>     push ax
   770 00001E3F 53                  <1>     push bx
   771 00001E40 51                  <1>     push cx
   772 00001E41 52                  <1>     push dx
   773 00001E42 57                  <1>     push di
   774 00001E43 89F7                <1>     mov di, si
   775 00001E45 E8FBFE              <1>     call navigator_clamp_view_state
   776 00001E48 E8D8FE              <1>     call navigator_get_source_span
   777 00001E4B 7237                <1>     jc .done
   778 00001E4D 89FE                <1>     mov si, di
   779 00001E4F E816E4              <1>     call print_string
   780 00001E52 A1[C377]            <1>     mov ax, [navigator_cursor]
   781 00001E55 E8D5E6              <1>     call print_hex_word_safe
   782 00001E58 BE[E12D]            <1>     mov si, msg_peek_mid
   783 00001E5B E80AE4              <1>     call print_string
   784 00001E5E 8B16[C377]          <1>     mov dx, [navigator_cursor]
   785 00001E62 01D3                <1>     add bx, dx
   786 00001E64 8B0E[C577]          <1>     mov cx, [navigator_window]
   787                              <1> 
   788                              <1> .byte_loop:
   789 00001E68 85C9                <1>     test cx, cx
   790 00001E6A 7412                <1>     jz .newline
   791 00001E6C 8A07                <1>     mov al, [bx]
   792 00001E6E E8ACE6              <1>     call print_hex_byte_safe
   793 00001E71 49                  <1>     dec cx
   794 00001E72 43                  <1>     inc bx
   795 00001E73 85C9                <1>     test cx, cx
   796 00001E75 7407                <1>     jz .newline
   797 00001E77 B020                <1>     mov al, ' '
   798 00001E79 E8F7E3              <1>     call print_char
   799 00001E7C EBEA                <1>     jmp .byte_loop
   800                              <1> 
   801                              <1> .newline:
   802 00001E7E BE[1637]            <1>     mov si, newline
   803 00001E81 E8E4E3              <1>     call print_string
   804                              <1> 
   805                              <1> .done:
   806 00001E84 5F                  <1>     pop di
   807 00001E85 5A                  <1>     pop dx
   808 00001E86 59                  <1>     pop cx
   809 00001E87 5B                  <1>     pop bx
   810 00001E88 58                  <1>     pop ax
   811 00001E89 C3                  <1>     ret
   812                              <1> 
   813                              <1> navigator_render_text_window:
   814 00001E8A 50                  <1>     push ax
   815 00001E8B 53                  <1>     push bx
   816 00001E8C 51                  <1>     push cx
   817 00001E8D 52                  <1>     push dx
   818 00001E8E 56                  <1>     push si
   819 00001E8F E8B1FE              <1>     call navigator_clamp_view_state
   820 00001E92 E88EFE              <1>     call navigator_get_source_span
   821 00001E95 7254                <1>     jc .done
   822 00001E97 BE[4936]            <1>     mov si, msg_view_text_header
   823 00001E9A E8CBE3              <1>     call print_string
   824 00001E9D A1[C377]            <1>     mov ax, [navigator_cursor]
   825 00001EA0 E88AE6              <1>     call print_hex_word_safe
   826 00001EA3 BE[E12D]            <1>     mov si, msg_peek_mid
   827 00001EA6 E8BFE3              <1>     call print_string
   828 00001EA9 8B16[C377]          <1>     mov dx, [navigator_cursor]
   829 00001EAD 01D3                <1>     add bx, dx
   830 00001EAF 8B0E[C577]          <1>     mov cx, [navigator_window]
   831                              <1> 
   832                              <1> .byte_loop:
   833 00001EB3 85C9                <1>     test cx, cx
   834 00001EB5 742E                <1>     jz .newline
   835 00001EB7 8A07                <1>     mov al, [bx]
   836 00001EB9 3C0D                <1>     cmp al, 0x0d
   837 00001EBB 7420                <1>     je .skip
   838 00001EBD 3C0A                <1>     cmp al, 0x0a
   839 00001EBF 7414                <1>     je .line_break
   840 00001EC1 3C20                <1>     cmp al, 32
   841 00001EC3 7209                <1>     jb .dot
   842 00001EC5 3C7E                <1>     cmp al, 126
   843 00001EC7 7705                <1>     ja .dot
   844 00001EC9 E8A7E3              <1>     call print_char
   845 00001ECC EB13                <1>     jmp .next
   846                              <1> 
   847                              <1> .dot:
   848 00001ECE B02E                <1>     mov al, '.'
   849 00001ED0 E8A0E3              <1>     call print_char
   850 00001ED3 EB0C                <1>     jmp .next
   851                              <1> 
   852                              <1> .line_break:
   853 00001ED5 BE[1637]            <1>     mov si, newline
   854 00001ED8 E88DE3              <1>     call print_string
   855 00001EDB EB04                <1>     jmp .next
   856                              <1> 
   857                              <1> .skip:
   858 00001EDD 43                  <1>     inc bx
   859 00001EDE 49                  <1>     dec cx
   860 00001EDF EBD2                <1>     jmp .byte_loop
   861                              <1> 
   862                              <1> .next:
   863 00001EE1 43                  <1>     inc bx
   864 00001EE2 49                  <1>     dec cx
   865 00001EE3 EBCE                <1>     jmp .byte_loop
   866                              <1> 
   867                              <1> .newline:
   868 00001EE5 BE[1637]            <1>     mov si, newline
   869 00001EE8 E87DE3              <1>     call print_string
   870                              <1> 
   871                              <1> .done:
   872 00001EEB 5E                  <1>     pop si
   873 00001EEC 5A                  <1>     pop dx
   874 00001EED 59                  <1>     pop cx
   875 00001EEE 5B                  <1>     pop bx
   876 00001EEF 58                  <1>     pop ax
   877 00001EF0 C3                  <1>     ret
   878                              <1> 
   879                              <1> protected_mode_program:
   880 00001EF1 BE[A832]            <1>     mov si, msg_pm32_intro
   881 00001EF4 E871E3              <1>     call print_string
   882 00001EF7 8926[CE3A]          <1>     mov word [pm32_saved_sp], sp
   883 00001EFB C606[D03A]00        <1>     mov byte [pm32_status], 0
   884 00001F00 66C706[D13A]000000- <1>     mov dword [pm32_signature], 0
   884 00001F08 00                  <1>
   885 00001F09 66C706[D53A]000000- <1>     mov dword [pm32_observed_cr0], 0
   885 00001F11 00                  <1>
   886 00001F12 66C706[D93A]000000- <1>     mov dword [pm32_observed_esp], 0
   886 00001F1A 00                  <1>
   887 00001F1B FA                  <1>     cli
   888 00001F1C 0F0116[4720]        <1>     lgdt [pm32_gdt_descriptor]
   889 00001F21 0F20C0              <1>     mov eax, cr0
   890 00001F24 6683C801            <1>     or eax, 1
   891 00001F28 0F22C0              <1>     mov cr0, eax
   892 00001F2B EA[791F]0800        <1>     jmp PM32_CODE_SEL:pm32_entry
   893                              <1> 
   894                              <1> pm32_real_mode_resume:
   895 00001F30 31C0                <1>     xor ax, ax
   896 00001F32 8ED8                <1>     mov ds, ax
   897 00001F34 8EC0                <1>     mov es, ax
   898 00001F36 8ED0                <1>     mov ss, ax
   899 00001F38 8B26[CE3A]          <1>     mov sp, [pm32_saved_sp]
   900 00001F3C FB                  <1>     sti
   901 00001F3D 803E[D03A]01        <1>     cmp byte [pm32_status], 1
   902 00001F42 752E                <1>     jne .fail
   903 00001F44 BE[CF32]            <1>     mov si, msg_pm32_return_prefix
   904 00001F47 E81EE3              <1>     call print_string
   905 00001F4A 66A1[D13A]          <1>     mov eax, [pm32_signature]
   906 00001F4E E873E5              <1>     call print_hex32_eax
   907 00001F51 BE[F232]            <1>     mov si, msg_pm32_return_cr0
   908 00001F54 E811E3              <1>     call print_string
   909 00001F57 66A1[D53A]          <1>     mov eax, [pm32_observed_cr0]
   910 00001F5B E866E5              <1>     call print_hex32_eax
   911 00001F5E BE[FA32]            <1>     mov si, msg_pm32_return_esp
   912 00001F61 E804E3              <1>     call print_string
   913 00001F64 66A1[D93A]          <1>     mov eax, [pm32_observed_esp]
   914 00001F68 E859E5              <1>     call print_hex32_eax
   915 00001F6B BE[1637]            <1>     mov si, newline
   916 00001F6E E8F7E2              <1>     call print_string
   917 00001F71 C3                  <1>     ret
   918                              <1> 
   919                              <1> .fail:
   920 00001F72 BE[0233]            <1>     mov si, msg_pm32_fail
   921 00001F75 E8F0E2              <1>     call print_string
   922 00001F78 C3                  <1>     ret
   923                              <1> 
   924                              <1> [bits 32]
   925                              <1> pm32_entry:
   926 00001F79 66B81000            <1>     mov ax, PM32_DATA_SEL
   927 00001F7D 8ED8                <1>     mov ds, ax
   928 00001F7F 8EC0                <1>     mov es, ax
   929 00001F81 8EE0                <1>     mov fs, ax
   930 00001F83 8EE8                <1>     mov gs, ax
   931 00001F85 8ED0                <1>     mov ss, ax
   932 00001F87 BC00700000          <1>     mov esp, PM32_STACK_TOP
   933                              <1> 
   934 00001F8C 0F20C0              <1>     mov eax, cr0
   935 00001F8F 67A3[D53A]          <1>     a16 mov [pm32_observed_cr0], eax
   936 00001F93 678926[D93A]        <1>     a16 mov [pm32_observed_esp], esp
   937                              <1> 
   938 00001F98 31F6                <1>     xor esi, esi
   939 00001F9A 66BE[2F33]          <1>     mov si, msg_pm32_serial_entered
   940 00001F9E E840000000          <1>     call pm32_serial_write_string
   941                              <1> 
   942 00001FA3 66C70500800B00501F  <1>     mov word [0xB8000], 0x1F50
   943 00001FAC 66C70502800B004D1F  <1>     mov word [0xB8002], 0x1F4D
   944 00001FB5 66C70504800B00331F  <1>     mov word [0xB8004], 0x1F33
   945 00001FBE 66C70506800B00321F  <1>     mov word [0xB8006], 0x1F32
   946                              <1> 
   947 00001FC7 B878563412          <1>     mov eax, 0x12345678
   948 00001FCC BB0F0F0F0F          <1>     mov ebx, 0x0F0F0F0F
   949 00001FD1 31D8                <1>     xor eax, ebx
   950 00001FD3 67A3[D13A]          <1>     a16 mov [pm32_signature], eax
   951 00001FD7 67C606[D03A]01      <1>     a16 mov byte [pm32_status], 1
   952                              <1> 
   953 00001FDD 66EA[0320]1800      <1>     jmp word PM16_CODE_SEL:pm32_exit16
   954                              <1> 
   955                              <1> pm32_serial_write_string:
   956 00001FE3 AC                  <1>     lodsb
   957 00001FE4 84C0                <1>     test al, al
   958 00001FE6 7407                <1>     jz .done
   959 00001FE8 E803000000          <1>     call pm32_serial_write_char
   960 00001FED EBF4                <1>     jmp pm32_serial_write_string
   961                              <1> 
   962                              <1> .done:
   963 00001FEF C3                  <1>     ret
   964                              <1> 
   965                              <1> pm32_serial_write_char:
   966 00001FF0 50                  <1>     push eax
   967 00001FF1 52                  <1>     push edx
   968                              <1> 
   969                              <1> .wait:
   970 00001FF2 66BAFD03            <1>     mov dx, COM1_PORT + 5
   971 00001FF6 EC                  <1>     in al, dx
   972 00001FF7 A820                <1>     test al, 0x20
   973 00001FF9 74F7                <1>     jz .wait
   974                              <1> 
   975 00001FFB 5A                  <1>     pop edx
   976 00001FFC 58                  <1>     pop eax
   977 00001FFD 66BAF803            <1>     mov dx, COM1_PORT
   978 00002001 EE                  <1>     out dx, al
   979 00002002 C3                  <1>     ret
   980                              <1> 
   981                              <1> [bits 16]
   982                              <1> pm32_exit16:
   983 00002003 B82000              <1>     mov ax, PM16_DATA_SEL
   984 00002006 8ED8                <1>     mov ds, ax
   985 00002008 8EC0                <1>     mov es, ax
   986 0000200A 8EE0                <1>     mov fs, ax
   987 0000200C 8EE8                <1>     mov gs, ax
   988 0000200E 8ED0                <1>     mov ss, ax
   989 00002010 0F20C0              <1>     mov eax, cr0
   990 00002013 6683E0FE            <1>     and eax, 0xFFFFFFFE
   991 00002017 0F22C0              <1>     mov cr0, eax
   992 0000201A EA[301F]0000        <1>     jmp 0x0000:pm32_real_mode_resume
   993                              <1> 
   994                              <1> pm32_gdt:
   995 0000201F 0000000000000000    <1>     dq 0x0000000000000000
   996 00002027 FFFF0000009ACF00    <1>     dq 0x00CF9A000000FFFF
   997 0000202F FFFF00000092CF00    <1>     dq 0x00CF92000000FFFF
   998 00002037 FFFF0000009A0000    <1>     dq 0x00009A000000FFFF
   999 0000203F FFFF000000920000    <1>     dq 0x000092000000FFFF
  1000                              <1> pm32_gdt_end:
  1001                              <1> 
  1002                              <1> pm32_gdt_descriptor:
  1003 00002047 2700                <1>     dw pm32_gdt_end - pm32_gdt - 1
  1004 00002049 [1F20]              <1>     dw pm32_gdt
  1005 0000204B 0000                <1>     dw 0
     7                                  %include "boot/stage2/04_commands_messages.asm"
     1                              <1> command_table:
     2 0000204D [1937][8000]        <1>     dw cmd_hardware_list, do_hardware_list
     3 00002051 [2737][8400]        <1>     dw cmd_memory_map, do_memory_map
     4 00002055 [3237][8800]        <1>     dw cmd_calc, do_calc
     5 00002059 [3737][8C00]        <1>     dw cmd_chat, do_chat
     6 0000205D [3C37][9000]        <1>     dw cmd_curl, do_curl
     7 00002061 [4137][9400]        <1>     dw cmd_hostreq, do_hostreq
     8 00002065 [4937][9800]        <1>     dw cmd_task_spawn, do_task_spawn
     9 00002069 [5437][9C00]        <1>     dw cmd_task_list, do_task_list
    10 0000206D [5E37][A000]        <1>     dw cmd_task_retire, do_task_retire
    11 00002071 [6A37][A400]        <1>     dw cmd_task_step, do_task_step
    12 00002075 [7437][A800]        <1>     dw cmd_ramlist, do_ramlist
    13 00002079 [7C37][AC00]        <1>     dw cmd_edit, do_edit
    14 0000207D [8137][B000]        <1>     dw cmd_grep, do_grep
    15 00002081 [8637][B400]        <1>     dw cmd_peek, do_peek
    16 00002085 [8B37][B800]        <1>     dw cmd_search, do_search
    17 00002089 [9237][BC00]        <1>     dw cmd_next, do_next
    18 0000208D [9737][C000]        <1>     dw cmd_prev, do_prev
    19 00002091 [9C37][C400]        <1>     dw cmd_forward, do_forward
    20 00002095 [A437][C800]        <1>     dw cmd_back, do_back
    21 00002099 [A937][CC00]        <1>     dw cmd_view, do_view
    22 0000209D [AE37][D400]        <1>     dw cmd_screen, do_screen
    23 000020A1 [B537][D000]        <1>     dw cmd_pm32, do_pm32
    24 000020A5 [BA37][DC00]        <1>     dw cmd_halt, do_halt
    25 000020A9 [BF37][E600]        <1>     dw cmd_reboot, do_reboot
    26 000020AD 00000000            <1>     dw 0, 0
    27                              <1> 
    28 000020B1 7374616765323A2063- <1> msg_banner db "stage2: command monitor ready", 13, 10, 0
    28 000020BA 6F6D6D616E64206D6F- <1>
    28 000020C3 6E69746F7220726561- <1>
    28 000020CC 64790D0A00          <1>
    29 000020D1 68617264776172655F- <1> msg_hint db "hardware_list, memory_map, calc, chat, curl, hostreq, task_spawn, task_list, task_retire, task_step, ramlist, edit, grep, peek, search, next, prev, forward, back, view, screen, pm32, halt, reboot", 13, 10, 13, 10, 0
    29 000020DA 6C6973742C206D656D- <1>
    29 000020E3 6F72795F6D61702C20- <1>
    29 000020EC 63616C632C20636861- <1>
    29 000020F5 742C206375726C2C20- <1>
    29 000020FE 686F73747265712C20- <1>
    29 00002107 7461736B5F73706177- <1>
    29 00002110 6E2C207461736B5F6C- <1>
    29 00002119 6973742C207461736B- <1>
    29 00002122 5F7265746972652C20- <1>
    29 0000212B 7461736B5F73746570- <1>
    29 00002134 2C2072616D6C697374- <1>
    29 0000213D 2C20656469742C2067- <1>
    29 00002146 7265702C207065656B- <1>
    29 0000214F 2C207365617263682C- <1>
    29 00002158 206E6578742C207072- <1>
    29 00002161 65762C20666F727761- <1>
    29 0000216A 72642C206261636B2C- <1>
    29 00002173 20766965772C207363- <1>
    29 0000217C 7265656E2C20706D33- <1>
    29 00002185 322C2068616C742C20- <1>
    29 0000218E 7265626F6F740D0A0D- <1>
    29 00002197 0A00                <1>
    30 00002199 636F6D6D616E64733A- <1> msg_help db "commands:", 13, 10
    30 000021A2 0D0A                <1>
    31 000021A4 206861726477617265- <1>          db " hardware_list  enumerate hardware visible through BIOS and low memory", 13, 10
    31 000021AD 5F6C6973742020656E- <1>
    31 000021B6 756D65726174652068- <1>
    31 000021BF 617264776172652076- <1>
    31 000021C8 697369626C65207468- <1>
    31 000021D1 726F7567682042494F- <1>
    31 000021DA 5320616E64206C6F77- <1>
    31 000021E3 206D656D6F72790D0A  <1>
    32 000021EC 206D656D6F72795F6D- <1>          db " memory_map     query BIOS E820 memory map and safe usable ranges", 13, 10
    32 000021F5 617020202020207175- <1>
    32 000021FE 6572792042494F5320- <1>
    32 00002207 45383230206D656D6F- <1>
    32 00002210 7279206D617020616E- <1>
    32 00002219 642073616665207573- <1>
    32 00002222 61626C652072616E67- <1>
    32 0000222B 65730D0A            <1>
    33 0000222F 2063616C6320202020- <1>          db " calc           integer calculator REPL", 13, 10
    33 00002238 20202020202020696E- <1>
    33 00002241 74656765722063616C- <1>
    33 0000224A 63756C61746F722052- <1>
    33 00002253 45504C0D0A          <1>
    34 00002258 206368617420202020- <1>          db " chat           send prompts over COM1 to the host bridge", 13, 10
    34 00002261 202020202020207365- <1>
    34 0000226A 6E642070726F6D7074- <1>
    34 00002273 73206F76657220434F- <1>
    34 0000227C 4D3120746F20746865- <1>
    34 00002285 20686F737420627269- <1>
    34 0000228E 6467650D0A          <1>
    35 00002293 206375726C20202020- <1>          db " curl           fetch a webpage through the host bridge", 13, 10
    35 0000229C 202020202020206665- <1>
    35 000022A5 746368206120776562- <1>
    35 000022AE 70616765207468726F- <1>
    35 000022B7 756768207468652068- <1>
    35 000022C0 6F7374206272696467- <1>
    35 000022C9 650D0A              <1>
    36 000022CC 20686F737472657120- <1>          db " hostreq        send structured host control requests", 13, 10
    36 000022D5 202020202020207365- <1>
    36 000022DE 6E6420737472756374- <1>
    36 000022E7 7572656420686F7374- <1>
    36 000022F0 20636F6E74726F6C20- <1>
    36 000022F9 72657175657374730D- <1>
    36 00002302 0A                  <1>
    37 00002303 207461736B5F737061- <1>          db " task_spawn     create a supervised task slot and host session", 13, 10
    37 0000230C 776E20202020206372- <1>
    37 00002315 656174652061207375- <1>
    37 0000231E 706572766973656420- <1>
    37 00002327 7461736B20736C6F74- <1>
    37 00002330 20616E6420686F7374- <1>
    37 00002339 2073657373696F6E0D- <1>
    37 00002342 0A                  <1>
    38 00002343 207461736B5F6C6973- <1>          db " task_list      show local task slots and host session summary", 13, 10
    38 0000234C 742020202020207368- <1>
    38 00002355 6F77206C6F63616C20- <1>
    38 0000235E 7461736B20736C6F74- <1>
    38 00002367 7320616E6420686F73- <1>
    38 00002370 742073657373696F6E- <1>
    38 00002379 2073756D6D6172790D- <1>
    38 00002382 0A                  <1>
    39 00002383 207461736B5F726574- <1>          db " task_retire    retire a supervised task slot", 13, 10
    39 0000238C 697265202020207265- <1>
    39 00002395 746972652061207375- <1>
    39 0000239E 706572766973656420- <1>
    39 000023A7 7461736B20736C6F74- <1>
    39 000023B0 0D0A                <1>
    40 000023B2 207461736B5F737465- <1>          db " task_step      step one supervised task through the host", 13, 10
    40 000023BB 702020202020207374- <1>
    40 000023C4 6570206F6E65207375- <1>
    40 000023CD 706572766973656420- <1>
    40 000023D6 7461736B207468726F- <1>
    40 000023DF 756768207468652068- <1>
    40 000023E8 6F73740D0A          <1>
    41 000023ED 2072616D6C69737420- <1>          db 0x20, 0x72, 0x61, 0x6D, 0x6C, 0x69, 0x73, 0x74, 0x20, 0x20, 0x20, 0x20, 0x20, 0x20, 0x20, 0x20, 0x52, 0x41, 0x4D, 0x20, 0x6C, 0x69, 0x6E, 0x6B, 0x65, 0x64, 0x20, 0x6C, 0x69, 0x73, 0x74, 0x0D, 0x0A
    41 000023F6 202020202020205241- <1>
    41 000023FF 4D206C696E6B656420- <1>
    41 00002408 6C6973740D0A        <1>
    42 0000240E 206564697420202020- <1>          db " edit           scratch text editor in RAM", 13, 10
    42 00002417 202020202020207363- <1>
    42 00002420 726174636820746578- <1>
    42 00002429 7420656469746F7220- <1>
    42 00002432 696E2052414D0D0A    <1>
    43 0000243A 206772657020202020- <1>          db " grep           navigator preset for the scratch editor buffer", 13, 10
    43 00002443 202020202020206E61- <1>
    43 0000244C 76696761746F722070- <1>
    43 00002455 726573657420666F72- <1>
    43 0000245E 207468652073637261- <1>
    43 00002467 74636820656469746F- <1>
    43 00002470 72206275666665720D- <1>
    43 00002479 0A                  <1>
    44 0000247A 207065656B20202020- <1>          db " peek           navigator preset for stage2 memory in hex", 13, 10
    44 00002483 202020202020206E61- <1>
    44 0000248C 76696761746F722070- <1>
    44 00002495 726573657420666F72- <1>
    44 0000249E 20737461676532206D- <1>
    44 000024A7 656D6F727920696E20- <1>
    44 000024B0 6865780D0A          <1>
    45 000024B5 207365617263682020- <1>          db " search         find a literal string or hex byte pattern", 13, 10
    45 000024BE 202020202020206669- <1>
    45 000024C7 6E642061206C697465- <1>
    45 000024D0 72616C20737472696E- <1>
    45 000024D9 67206F722068657820- <1>
    45 000024E2 627974652070617474- <1>
    45 000024EB 65726E0D0A          <1>
    46 000024F0 206E65787420202020- <1>          db " next           jump to the next match in the current source", 13, 10
    46 000024F9 202020202020206A75- <1>
    46 00002502 6D7020746F20746865- <1>
    46 0000250B 206E657874206D6174- <1>
    46 00002514 636820696E20746865- <1>
    46 0000251D 2063757272656E7420- <1>
    46 00002526 736F757263650D0A    <1>
    47 0000252E 207072657620202020- <1>          db " prev           jump to the previous match in the current source", 13, 10
    47 00002537 202020202020206A75- <1>
    47 00002540 6D7020746F20746865- <1>
    47 00002549 2070726576696F7573- <1>
    47 00002552 206D6174636820696E- <1>
    47 0000255B 207468652063757272- <1>
    47 00002564 656E7420736F757263- <1>
    47 0000256D 650D0A              <1>
    48 00002570 20666F727761726420- <1>          db " forward        move the current view window forward", 13, 10
    48 00002579 202020202020206D6F- <1>
    48 00002582 766520746865206375- <1>
    48 0000258B 7272656E7420766965- <1>
    48 00002594 772077696E646F7720- <1>
    48 0000259D 666F72776172640D0A  <1>
    49 000025A6 206261636B20202020- <1>          db " back           move the current view window backward", 13, 10
    49 000025AF 202020202020206D6F- <1>
    49 000025B8 766520746865206375- <1>
    49 000025C1 7272656E7420766965- <1>
    49 000025CA 772077696E646F7720- <1>
    49 000025D3 6261636B776172640D- <1>
    49 000025DC 0A                  <1>
    50 000025DD 207669657720202020- <1>          db " view           redraw the current window", 13, 10
    50 000025E6 202020202020207265- <1>
    50 000025EF 647261772074686520- <1>
    50 000025F8 63757272656E742077- <1>
    50 00002601 696E646F770D0A      <1>
    51 00002608 2073637265656E2020- <1>          db " screen         monitor screen controls (auto-clear on/off/status)", 13, 10
    51 00002611 202020202020206D6F- <1>
    51 0000261A 6E69746F7220736372- <1>
    51 00002623 65656E20636F6E7472- <1>
    51 0000262C 6F6C7320286175746F- <1>
    51 00002635 2D636C656172206F6E- <1>
    51 0000263E 2F6F66662F73746174- <1>
    51 00002647 7573290D0A          <1>
    52 0000264C 20706D333220202020- <1>          db " pm32           enter 32-bit protected mode, run a self-test, and return", 13, 10
    52 00002655 20202020202020656E- <1>
    52 0000265E 7465722033322D6269- <1>
    52 00002667 742070726F74656374- <1>
    52 00002670 6564206D6F64652C20- <1>
    52 00002679 72756E20612073656C- <1>
    52 00002682 662D746573742C2061- <1>
    52 0000268B 6E642072657475726E- <1>
    52 00002694 0D0A                <1>
    53 00002696 2068616C7420202020- <1>          db " halt           stop the CPU", 13, 10
    53 0000269F 202020202020207374- <1>
    53 000026A8 6F7020746865204350- <1>
    53 000026B1 550D0A              <1>
    54 000026B4 207265626F6F742020- <1>          db " reboot         jump back through BIOS", 13, 10, 0
    54 000026BD 202020202020206A75- <1>
    54 000026C6 6D70206261636B2074- <1>
    54 000026CF 68726F756768204249- <1>
    54 000026D8 4F530D0A00          <1>
    55 000026DD 756E6B6E6F776E2063- <1> msg_unknown db "unknown command", 13, 10, 0
    55 000026E6 6F6D6D616E640D0A00  <1>
    56 000026EF 68616C74696E672043- <1> msg_halt db "halting CPU", 13, 10, 0
    56 000026F8 50550D0A00          <1>
    57 000026FD 7265626F6F74696E67- <1> msg_reboot db "rebooting through BIOS", 13, 10, 0
    57 00002706 207468726F75676820- <1>
    57 0000270F 42494F530D0A00      <1>
    58 00002716 686172647761726520- <1> msg_hardware_header db "hardware enumeration:", 13, 10, 0
    58 0000271F 656E756D6572617469- <1>
    58 00002728 6F6E3A0D0A00        <1>
    59 0000272E 65717569706D656E74- <1> msg_hardware_equipment db "equipment word: 0x", 0
    59 00002737 20776F72643A203078- <1>
    59 00002740 00                  <1>
    60 00002741 62617365206D656D6F- <1> msg_hardware_base_memory db "base memory: ", 0
    60 0000274A 72793A2000          <1>
    61 0000274F 204B420D0A00        <1> msg_hardware_kb_suffix db " KB", 13, 10, 0
    62 00002755 766964656F206D6F64- <1> msg_hardware_video db "video mode: 0x", 0
    62 0000275E 653A20307800        <1>
    63 00002764 20636F6C733D00      <1> msg_hardware_video_cols db " cols=", 0
    64 0000276B 20726F77733D00      <1> msg_hardware_video_rows db " rows=", 0
    65 00002772 20706167653D00      <1> msg_hardware_video_page db " page=", 0
    66 00002779 65383230206D656D6F- <1> msg_hardware_e820_prefix db "e820 memory map: ", 0
    66 00002782 7279206D61703A2000  <1>
    67 0000278B 73657269616C20706F- <1> msg_hardware_serial_header db "serial ports:", 13, 10, 0
    67 00002794 7274733A0D0A00      <1>
    68 0000279B 706172616C6C656C20- <1> msg_hardware_parallel_header db "parallel ports:", 13, 10, 0
    68 000027A4 706F7274733A0D0A00  <1>
    69 000027AD 62696F732064726976- <1> msg_hardware_drive_header db "bios drives:", 13, 10, 0
    69 000027B6 65733A0D0A00        <1>
    70 000027BC 70732F32206D6F7573- <1> msg_hardware_mouse_prefix db "ps/2 mouse probe: ", 0
    70 000027C5 652070726F62653A20- <1>
    70 000027CE 00                  <1>
    71 000027CF 202D20434F4D00      <1> msg_hardware_com_prefix db " - COM", 0
    72 000027D6 202D204C505400      <1> msg_hardware_lpt_prefix db " - LPT", 0
    73 000027DD 20626173653D307800  <1> msg_hardware_base_prefix db " base=0x", 0
    74 000027E6 202D20647269766520- <1> msg_hardware_drive_prefix db " - drive 0x", 0
    74 000027EF 307800              <1>
    75 000027F2 20726573706F6E6473- <1> msg_hardware_drive_floppy db " responds (floppy-class)", 13, 10, 0
    75 000027FB 2028666C6F7070792D- <1>
    75 00002804 636C617373290D0A00  <1>
    76 0000280D 20726573706F6E6473- <1> msg_hardware_drive_fixed db " responds (fixed-disk-class)", 13, 10, 0
    76 00002816 202866697865642D64- <1>
    76 0000281F 69736B2D636C617373- <1>
    76 00002828 290D0A00            <1>
    77 0000282C 617661696C61626C65- <1> msg_hardware_available db "available", 13, 10, 0
    77 00002835 0D0A00              <1>
    78 00002838 756E617661696C6162- <1> msg_hardware_unavailable db "unavailable", 13, 10, 0
    78 00002841 6C650D0A00          <1>
    79 00002846 202D206E6F6E650D0A- <1> msg_hardware_none db " - none", 13, 10, 0
    79 0000284F 00                  <1>
    80 00002850 62696F732065383230- <1> msg_memory_map_header db "bios e820 memory map:", 13, 10, 0
    80 00002859 206D656D6F7279206D- <1>
    80 00002862 61703A0D0A00        <1>
    81 00002868 6D656D6F7279206D61- <1> msg_memory_map_unavailable db "memory map unavailable from BIOS", 13, 10, 0
    81 00002871 7020756E617661696C- <1>
    81 0000287A 61626C652066726F6D- <1>
    81 00002883 2042494F530D0A00    <1>
    82 0000288B 6B65726E656C2D7361- <1> msg_memory_safe_header db "kernel-safe usable ranges:", 13, 10, 0
    82 00002894 666520757361626C65- <1>
    82 0000289D 2072616E6765733A0D- <1>
    82 000028A6 0A00                <1>
    83 000028A8 202D206E6F6E650D0A- <1> msg_memory_safe_none db " - none", 13, 10, 0
    83 000028B1 00                  <1>
    84 000028B2 20626173653D307800  <1> msg_base db " base=0x", 0
    85 000028BB 206C656E6774683D30- <1> msg_length db " length=0x", 0
    85 000028C4 7800                <1>
    86 000028C6 20747970653D00      <1> msg_type db " type=", 0
    87 000028CD 757361626C6500      <1> msg_e820_type_usable db "usable", 0
    88 000028D4 726573657276656400  <1> msg_e820_type_reserved db "reserved", 0
    89 000028DD 61637069207265636C- <1> msg_e820_type_acpi db "acpi reclaimable", 0
    89 000028E6 61696D61626C6500    <1>
    90 000028EE 61637069206E767300  <1> msg_e820_type_nvs db "acpi nvs", 0
    91 000028F7 626164206D656D6F72- <1> msg_e820_type_bad db "bad memory", 0
    91 00002900 7900                <1>
    92 00002902 756E6B6E6F776E00    <1> msg_e820_type_unknown db "unknown", 0
    93 0000290A 63616C63756C61746F- <1> msg_calc_intro db "calculator: enter expressions like 12+34 or 42 / 6. blank line or exit returns.", 13, 10, 0
    93 00002913 723A20656E74657220- <1>
    93 0000291C 65787072657373696F- <1>
    93 00002925 6E73206C696B652031- <1>
    93 0000292E 322B3334206F722034- <1>
    93 00002937 32202F20362E20626C- <1>
    93 00002940 616E6B206C696E6520- <1>
    93 00002949 6F7220657869742072- <1>
    93 00002952 657475726E732E0D0A- <1>
    93 0000295B 00                  <1>
    94 0000295C 3D2000              <1> msg_calc_result db "= ", 0
    95 0000295F 6469766973696F6E20- <1> msg_calc_div_zero db "division by zero", 13, 10, 0
    95 00002968 6279207A65726F0D0A- <1>
    95 00002971 00                  <1>
    96 00002972 6F766572666C6F773A- <1> msg_calc_overflow db "overflow: signed 16-bit range is -32768..32767", 13, 10, 0
    96 0000297B 207369676E65642031- <1>
    96 00002984 362D6269742072616E- <1>
    96 0000298D 6765206973202D3332- <1>
    96 00002996 3736382E2E33323736- <1>
    96 0000299F 370D0A00            <1>
    97 000029A3 73796E7461783A203C- <1> msg_calc_syntax db "syntax: <integer> <op> <integer> where op is + - * / %", 13, 10, 0
    97 000029AC 696E74656765723E20- <1>
    97 000029B5 3C6F703E203C696E74- <1>
    97 000029BE 656765723E20776865- <1>
    97 000029C7 7265206F7020697320- <1>
    97 000029D0 2B202D202A202F2025- <1>
    97 000029D9 0D0A00              <1>
    98 000029DC 6C656176696E672063- <1> msg_calc_exit db "leaving calculator", 13, 10, 0
    98 000029E5 616C63756C61746F72- <1>
    98 000029EE 0D0A00              <1>
    99 000029F1 2D333237363800      <1> msg_int_min db "-32768", 0
   100 000029F8 636861743A20626C61- <1> msg_chat_intro db "chat: blank line or exit leaves. command output may feed back automatically. /loop continues; /kill-self halts.", 13, 10, 0
   100 00002A01 6E6B206C696E65206F- <1>
   100 00002A0A 722065786974206C65- <1>
   100 00002A13 617665732E20636F6D- <1>
   100 00002A1C 6D616E64206F757470- <1>
   100 00002A25 7574206D6179206665- <1>
   100 00002A2E 6564206261636B2061- <1>
   100 00002A37 75746F6D6174696361- <1>
   100 00002A40 6C6C792E202F6C6F6F- <1>
   100 00002A49 7020636F6E74696E75- <1>
   100 00002A52 65733B202F6B696C6C- <1>
   100 00002A5B 2D73656C662068616C- <1>
   100 00002A64 74732E0D0A00        <1>
   101 00002A6A 77616974696E672066- <1> msg_chat_wait db "waiting for host response...", 13, 10, 0
   101 00002A73 6F7220686F73742072- <1>
   101 00002A7C 6573706F6E73652E2E- <1>
   101 00002A85 2E0D0A00            <1>
   102 00002A89 636861743A20636F6E- <1> msg_chat_loop_wait db "chat: continuing with host using the latest command output...", 13, 10, 0
   102 00002A92 74696E75696E672077- <1>
   102 00002A9B 69746820686F737420- <1>
   102 00002AA4 7573696E6720746865- <1>
   102 00002AAD 206C61746573742063- <1>
   102 00002AB6 6F6D6D616E64206F75- <1>
   102 00002ABF 747075742E2E2E0D0A- <1>
   102 00002AC8 00                  <1>
   103 00002AC9 726563757273697665- <1> msg_chat_loop_enabled db "recursive loop enabled. the host will keep iterating until claude returns a normal answer.", 13, 10, 0
   103 00002AD2 206C6F6F7020656E61- <1>
   103 00002ADB 626C65642E20746865- <1>
   103 00002AE4 20686F73742077696C- <1>
   103 00002AED 6C206B656570206974- <1>
   103 00002AF6 65726174696E672075- <1>
   103 00002AFF 6E74696C20636C6175- <1>
   103 00002B08 64652072657475726E- <1>
   103 00002B11 732061206E6F726D61- <1>
   103 00002B1A 6C20616E737765722E- <1>
   103 00002B23 0D0A00              <1>
   104 00002B26 6368617420636F6E74- <1> msg_chat_loop_limit db "chat continuation limit reached; handing control back to the user.", 13, 10, 0
   104 00002B2F 696E756174696F6E20- <1>
   104 00002B38 6C696D697420726561- <1>
   104 00002B41 636865643B2068616E- <1>
   104 00002B4A 64696E6720636F6E74- <1>
   104 00002B53 726F6C206261636B20- <1>
   104 00002B5C 746F20746865207573- <1>
   104 00002B65 65722E0D0A00        <1>
   105 00002B6B 6C656176696E672063- <1> msg_chat_exit db "leaving chat", 13, 10, 0
   105 00002B74 6861740D0A00        <1>
   106 00002B7A 504F5354202F636861- <1> msg_chat_post_prefix db 'POST /chat {"session":"', 0
   106 00002B83 74207B227365737369- <1>
   106 00002B8C 6F6E223A2200        <1>
   107 00002B92 222C2270726F6D7074- <1> msg_chat_post_mid db '","prompt":"', 0
   107 00002B9B 223A2200            <1>
   108 00002B9F 2C2266726573685F63- <1> msg_chat_post_fresh db ',"fresh_chat":true', 0
   108 00002BA8 686174223A74727565- <1>
   108 00002BB1 00                  <1>
   109 00002BB2 504F5354202F636861- <1> msg_chat_loop_post_prefix db 'POST /chat {"session":"', 0
   109 00002BBB 74207B227365737369- <1>
   109 00002BC4 6F6E223A2200        <1>
   110 00002BCA 222C2270726F6D7074- <1> msg_chat_loop_post_mid db '","prompt":"continue from the latest kernel command result. if more non-interactive work is needed, return the next command; otherwise return a normal user-facing answer","loop":true', 0
   110 00002BD3 223A22636F6E74696E- <1>
   110 00002BDC 75652066726F6D2074- <1>
   110 00002BE5 6865206C6174657374- <1>
   110 00002BEE 206B65726E656C2063- <1>
   110 00002BF7 6F6D6D616E64207265- <1>
   110 00002C00 73756C742E20696620- <1>
   110 00002C09 6D6F7265206E6F6E2D- <1>
   110 00002C12 696E74657261637469- <1>
   110 00002C1B 766520776F726B2069- <1>
   110 00002C24 73206E65656465642C- <1>
   110 00002C2D 2072657475726E2074- <1>
   110 00002C36 6865206E6578742063- <1>
   110 00002C3F 6F6D6D616E643B206F- <1>
   110 00002C48 746865727769736520- <1>
   110 00002C51 72657475726E206120- <1>
   110 00002C5A 6E6F726D616C207573- <1>
   110 00002C63 65722D666163696E67- <1>
   110 00002C6C 20616E73776572222C- <1>
   110 00002C75 226C6F6F70223A7472- <1>
   110 00002C7E 756500              <1>
   111 00002C81 6375726C3A20666574- <1> msg_curl_intro db "curl: fetch a URL through the host bridge. blank line or exit returns.", 13, 10, 0
   111 00002C8A 636820612055524C20- <1>
   111 00002C93 7468726F7567682074- <1>
   111 00002C9C 686520686F73742062- <1>
   111 00002CA5 72696467652E20626C- <1>
   111 00002CAE 616E6B206C696E6520- <1>
   111 00002CB7 6F7220657869742072- <1>
   111 00002CC0 657475726E732E0D0A- <1>
   111 00002CC9 00                  <1>
   112 00002CCA 77616974696E672066- <1> msg_curl_wait db "waiting for webpage...", 13, 10, 0
   112 00002CD3 6F7220776562706167- <1>
   112 00002CDC 652E2E2E0D0A00      <1>
   113 00002CE3 6C656176696E672063- <1> msg_curl_exit db "leaving curl", 13, 10, 0
   113 00002CEC 75726C0D0A00        <1>
   114 00002CF2 6375726C2073796E74- <1> msg_curl_bad db "curl syntax: use a non-empty http:// or https:// URL", 13, 10, 0
   114 00002CFB 61783A207573652061- <1>
   114 00002D04 206E6F6E2D656D7074- <1>
   114 00002D0D 7920687474703A2F2F- <1>
   114 00002D16 206F72206874747073- <1>
   114 00002D1F 3A2F2F2055524C0D0A- <1>
   114 00002D28 00                  <1>
   115 00002D29 7065656B3A20696E73- <1> msg_peek_intro db "peek: inspect bytes from the live stage2 image", 13, 10, 0
   115 00002D32 706563742062797465- <1>
   115 00002D3B 732066726F6D207468- <1>
   115 00002D44 65206C697665207374- <1>
   115 00002D4D 6167653220696D6167- <1>
   115 00002D56 650D0A00            <1>
   116 00002D5A 7065656B2073796E74- <1> msg_peek_bad db "peek syntax: offset and count are required hex values, count 1..C80", 13, 10, 0
   116 00002D63 61783A206F66667365- <1>
   116 00002D6C 7420616E6420636F75- <1>
   116 00002D75 6E7420617265207265- <1>
   116 00002D7E 717569726564206865- <1>
   116 00002D87 782076616C7565732C- <1>
   116 00002D90 20636F756E7420312E- <1>
   116 00002D99 2E4338300D0A00      <1>
   117 00002DA0 7065656B7061676520- <1> msg_peek_page_bad db "peekpage syntax: base and page are required hex values", 13, 10, 0
   117 00002DA9 73796E7461783A2062- <1>
   117 00002DB2 61736520616E642070- <1>
   117 00002DBB 616765206172652072- <1>
   117 00002DC4 657175697265642068- <1>
   117 00002DCD 65782076616C756573- <1>
   117 00002DD6 0D0A00              <1>
   118 00002DD9 7065656B20307800    <1> msg_peek_header db "peek 0x", 0
   119 00002DE1 3A2000              <1> msg_peek_mid db ": ", 0
   120 00002DE4 686F73747265713A20- <1> msg_hostreq_intro db "hostreq: list, spawn, clone, retire, step, adopt, git-sync", 13, 10, 0
   120 00002DED 6C6973742C20737061- <1>
   120 00002DF6 776E2C20636C6F6E65- <1>
   120 00002DFF 2C207265746972652C- <1>
   120 00002E08 20737465702C206164- <1>
   120 00002E11 6F70742C206769742D- <1>
   120 00002E1A 73796E630D0A00      <1>
   121 00002E21 756E6B6E6F776E2068- <1> msg_hostreq_unknown db "unknown host action", 13, 10, 0
   121 00002E2A 6F737420616374696F- <1>
   121 00002E33 6E0D0A00            <1>
   122 00002E37 6C656176696E672068- <1> msg_hostreq_exit db "leaving hostreq", 13, 10, 0
   122 00002E40 6F73747265710D0A00  <1>
   123 00002E49 7461736B5F73706177- <1> msg_task_spawn_intro db "task_spawn: create a supervised task slot and matching host session", 13, 10, 0
   123 00002E52 6E3A20637265617465- <1>
   123 00002E5B 206120737570657276- <1>
   123 00002E64 69736564207461736B- <1>
   123 00002E6D 20736C6F7420616E64- <1>
   123 00002E76 206D61746368696E67- <1>
   123 00002E7F 20686F737420736573- <1>
   123 00002E88 73696F6E0D0A00      <1>
   124 00002E8F 6C6F63616C20737570- <1> msg_task_list_intro db "local supervised tasks:", 13, 10, 0
   124 00002E98 657276697365642074- <1>
   124 00002EA1 61736B733A0D0A00    <1>
   125 00002EA9 7461736B5F72657469- <1> msg_task_retire_intro db "task_retire: retire a task slot and host session", 13, 10, 0
   125 00002EB2 72653A207265746972- <1>
   125 00002EBB 652061207461736B20- <1>
   125 00002EC4 736C6F7420616E6420- <1>
   125 00002ECD 686F73742073657373- <1>
   125 00002ED6 696F6E0D0A00        <1>
   126 00002EDC 7461736B5F73746570- <1> msg_task_step_intro db "task_step: ask one supervised task to take its next bounded step", 13, 10, 0
   126 00002EE5 3A2061736B206F6E65- <1>
   126 00002EEE 207375706572766973- <1>
   126 00002EF7 6564207461736B2074- <1>
   126 00002F00 6F2074616B65206974- <1>
   126 00002F09 73206E65787420626F- <1>
   126 00002F12 756E64656420737465- <1>
   126 00002F1B 700D0A00            <1>
   127 00002F1F 7461736B20636F6D6D- <1> msg_task_abort db "task command aborted", 13, 10, 0
   127 00002F28 616E642061626F7274- <1>
   127 00002F31 65640D0A00          <1>
   128 00002F36 7461736B20616C7265- <1> msg_task_exists db "task already exists locally", 13, 10, 0
   128 00002F3F 616479206578697374- <1>
   128 00002F48 73206C6F63616C6C79- <1>
   128 00002F51 0D0A00              <1>
   129 00002F54 6E6F2066726565206C- <1> msg_task_full db "no free local task slots remain", 13, 10, 0
   129 00002F5D 6F63616C207461736B- <1>
   129 00002F66 20736C6F7473207265- <1>
   129 00002F6F 6D61696E0D0A00      <1>
   130 00002F76 7461736B2073746F72- <1> msg_task_spawned db "task stored locally", 13, 10, 0
   130 00002F7F 6564206C6F63616C6C- <1>
   130 00002F88 790D0A00            <1>
   131 00002F8C 7461736B206E6F7420- <1> msg_task_missing db "task not found in local slots", 13, 10, 0
   131 00002F95 666F756E6420696E20- <1>
   131 00002F9E 6C6F63616C20736C6F- <1>
   131 00002FA7 74730D0A00          <1>
   132 00002FAC 7461736B2072656D6F- <1> msg_task_retired db "task removed from local slots", 13, 10, 0
   132 00002FB5 7665642066726F6D20- <1>
   132 00002FBE 6C6F63616C20736C6F- <1>
   132 00002FC7 74730D0A00          <1>
   133 00002FCC 6E6F206C6F63616C20- <1> msg_task_none db "no local tasks", 13, 10, 0
   133 00002FD5 7461736B730D0A00    <1>
   134 00002FDD 686F73742073756D6D- <1> msg_task_host_summary db "host summary:", 13, 10, 0
   134 00002FE6 6172793A0D0A00      <1>
   135 00002FED 206E616D653D00      <1> msg_task_name_prefix db " name=", 0
   136 00002FF4 20676F616C3D00      <1> msg_task_goal_prefix db " goal=", 0
   137 00002FFB 72616D6C6973743A20- <1> msg_ramlist_intro db 0x72, 0x61, 0x6D, 0x6C, 0x69, 0x73, 0x74, 0x3A, 0x20, 0x70, 0x75, 0x73, 0x68, 0x2C, 0x20, 0x70, 0x6F, 0x70, 0x2C, 0x20, 0x73, 0x68, 0x6F, 0x77, 0x2C, 0x20, 0x63, 0x6C, 0x65, 0x61, 0x72, 0x2C, 0x20, 0x65, 0x78, 0x69, 0x74, 0x0D, 0x0A, 0x00
   137 00003004 707573682C20706F70- <1>
   137 0000300D 2C2073686F772C2063- <1>
   137 00003016 6C6561722C20657869- <1>
   137 0000301F 740D0A00            <1>
   138 00003023 6C656176696E672072- <1> msg_ramlist_exit db 0x6C, 0x65, 0x61, 0x76, 0x69, 0x6E, 0x67, 0x20, 0x72, 0x61, 0x6D, 0x6C, 0x69, 0x73, 0x74, 0x0D, 0x0A, 0x00
   138 0000302C 616D6C6973740D0A00  <1>
   139 00003035 75736520707573682F- <1> msg_ramlist_unknown db "use push/pop/show/clear/exit", 13, 10, 0
   139 0000303E 706F702F73686F772F- <1>
   139 00003047 636C6561722F657869- <1>
   139 00003050 740D0A00            <1>
   140 00003054 62616420696E746567- <1> msg_ramlist_bad_value db "bad integer", 13, 10, 0
   140 0000305D 65720D0A00          <1>
   141 00003062 66756C6C0D0A00      <1> msg_ramlist_full db "full", 13, 10, 0
   142 00003069 656D7074790D0A00    <1> msg_ramlist_empty db "empty", 13, 10, 0
   143 00003071 73746F7265640D0A00  <1> msg_ramlist_pushed db "stored", 13, 10, 0
   144 0000307A 706F707065642000    <1> msg_ramlist_popped db "popped ", 0
   145 00003082 636C65617265640D0A- <1> msg_ramlist_cleared db "cleared", 13, 10, 0
   145 0000308B 00                  <1>
   146 0000308C 636F6E74656E74733A- <1> msg_ramlist_show db "contents:", 13, 10, 0
   146 00003095 0D0A00              <1>
   147 00003098 656D7074790D0A00    <1> msg_ramlist_none db "empty", 13, 10, 0
   148 000030A0 3A2000              <1> msg_ramlist_item_sep db ": ", 0
   149 000030A3 73637265656E3A2073- <1> msg_screen_intro db "screen: status, on, off, clear, exit", 13, 10, 0
   149 000030AC 74617475732C206F6E- <1>
   149 000030B5 2C206F66662C20636C- <1>
   149 000030BE 6561722C2065786974- <1>
   149 000030C7 0D0A00              <1>
   150 000030CA 757365207374617475- <1> msg_screen_unknown db "use status/on/off/clear/exit", 13, 10, 0
   150 000030D3 732F6F6E2F6F66662F- <1>
   150 000030DC 636C6561722F657869- <1>
   150 000030E5 740D0A00            <1>
   151 000030E9 6175746F2D636C6561- <1> msg_screen_status_prefix db "auto-clear: ", 0
   151 000030F2 723A2000            <1>
   152 000030F6 6F6E0D0A00          <1> msg_screen_on_state db "on", 13, 10, 0
   153 000030FB 6F66660D0A00        <1> msg_screen_off_state db "off", 13, 10, 0
   154 00003101 6175746F2D636C6561- <1> msg_screen_enabled db "auto-clear enabled", 13, 10, 0
   154 0000310A 7220656E61626C6564- <1>
   154 00003113 0D0A00              <1>
   155 00003116 6175746F2D636C6561- <1> msg_screen_disabled db "auto-clear disabled", 13, 10, 0
   155 0000311F 722064697361626C65- <1>
   155 00003128 640D0A00            <1>
   156 0000312C 6C656176696E672073- <1> msg_screen_exit db "leaving screen controls", 13, 10, 0
   156 00003135 637265656E20636F6E- <1>
   156 0000313E 74726F6C730D0A00    <1>
   157 00003146 434D443A2000        <1> msg_cmd_prefix db "CMD: ", 0
   158 0000314C 414920726571756573- <1> msg_cmd_dispatch db "AI requested command: ", 0
   158 00003155 74656420636F6D6D61- <1>
   158 0000315E 6E643A2000          <1>
   159 00003163 4572726F723A00      <1> msg_error_prefix db "Error:", 0
   160 0000316A 67656E65726174696F- <1> msg_generation db "generation 0x", 0
   160 00003173 6E20307800          <1>
   161 00003178 67656E65726174696F- <1> msg_generation_advanced db "generation advanced to 0x", 0
   161 00003181 6E20616476616E6365- <1>
   161 0000318A 6420746F20307800    <1>
   162 00003192 0D0A2A2A2A20434C41- <1> msg_patch_danger db 13, 10, "*** CLAUDE COOKED UP A LIVE CODE PATCH ***", 13, 10, 0
   162 0000319B 55444520434F4F4B45- <1>
   162 000031A4 442055502041204C49- <1>
   162 000031AD 564520434F44452050- <1>
   162 000031B6 41544348202A2A2A0D- <1>
   162 000031BF 0A00                <1>
   163 000031C1 6F6666736574203078- <1> msg_patch_offset db "offset 0x", 0
   163 000031CA 00                  <1>
   164 000031CB 2062797465732000    <1> msg_patch_bytes db " bytes ", 0
   165 000031D3 6170706C79696E6720- <1> msg_applying db "applying patch... hold on...", 13, 10, 0
   165 000031DC 70617463682E2E2E20- <1>
   165 000031E5 686F6C64206F6E2E2E- <1>
   165 000031EE 2E0D0A00            <1>
   166 000031F2 706174636820617070- <1> msg_patch_applied db "patch applied. beautiful chaos achieved.", 13, 10, 0
   166 000031FB 6C6965642E20626561- <1>
   166 00003204 75746966756C206368- <1>
   166 0000320D 616F73206163686965- <1>
   166 00003216 7665642E0D0A00      <1>
   167 0000321D 636C61756465207365- <1> msg_unknown_patch db "claude sent a malformed patch, ignoring it.", 13, 10, 0
   167 00003226 6E742061206D616C66- <1>
   167 0000322F 6F726D656420706174- <1>
   167 00003238 63682C2069676E6F72- <1>
   167 00003241 696E672069742E0D0A- <1>
   167 0000324A 00                  <1>
   168 0000324B 73747265616D206178- <1> msg_stream_result db "stream ax=0x", 0
   168 00003254 3D307800            <1>
   169 00003258 73747265616D207379- <1> msg_stream_bad db "stream syntax: 1..1F0 hex bytes", 13, 10, 0
   169 00003261 6E7461783A20312E2E- <1>
   169 0000326A 314630206865782062- <1>
   169 00003273 797465730D0A00      <1>
   170 0000327A 4B45524E454C2D5255- <1> msg_kernel_runtime_latent db "KERNEL-RUNTIME latent", 13, 10, 0
   170 00003283 4E54494D45206C6174- <1>
   170 0000328C 656E740D0A00        <1>
   171 00003292 4B45524E454C2D5255- <1> msg_kernel_runtime_busy db "KERNEL-RUNTIME busy", 13, 10, 0
   171 0000329B 4E54494D4520627573- <1>
   171 000032A4 790D0A00            <1>
   172 000032A8 706D33323A20656E74- <1> msg_pm32_intro db "pm32: entering 32-bit protected mode", 13, 10, 0
   172 000032B1 6572696E672033322D- <1>
   172 000032BA 6269742070726F7465- <1>
   172 000032C3 63746564206D6F6465- <1>
   172 000032CC 0D0A00              <1>
   173 000032CF 706D33323A20726574- <1> msg_pm32_return_prefix db "pm32: returned to real mode sig=0x", 0
   173 000032D8 75726E656420746F20- <1>
   173 000032E1 7265616C206D6F6465- <1>
   173 000032EA 207369673D307800    <1>
   174 000032F2 206372303D307800    <1> msg_pm32_return_cr0 db " cr0=0x", 0
   175 000032FA 206573703D307800    <1> msg_pm32_return_esp db " esp=0x", 0
   176 00003302 706D33323A2070726F- <1> msg_pm32_fail db "pm32: protected mode test did not complete", 13, 10, 0
   176 0000330B 746563746564206D6F- <1>
   176 00003314 646520746573742064- <1>
   176 0000331D 6964206E6F7420636F- <1>
   176 00003326 6D706C6574650D0A00  <1>
   177 0000332F 706D33323A2070726F- <1> msg_pm32_serial_entered db "pm32: protected mode active", 13, 10, 0
   177 00003338 746563746564206D6F- <1>
   177 00003341 646520616374697665- <1>
   177 0000334A 0D0A00              <1>
   178 0000334D 504F5354202F686F73- <1> msg_host_post_list db 'POST /host {"action":"list-sessions"', 0
   178 00003356 74207B22616374696F- <1>
   178 0000335F 6E223A226C6973742D- <1>
   178 00003368 73657373696F6E7322- <1>
   178 00003371 00                  <1>
   179 00003372 504F5354202F686F73- <1> msg_host_post_spawn_prefix db 'POST /host {"action":"spawn-session","session":"', 0
   179 0000337B 74207B22616374696F- <1>
   179 00003384 6E223A22737061776E- <1>
   179 0000338D 2D73657373696F6E22- <1>
   179 00003396 2C2273657373696F6E- <1>
   179 0000339F 223A2200            <1>
   180 000033A3 222C22676F616C223A- <1> msg_host_post_spawn_mid db '","goal":"', 0
   180 000033AC 2200                <1>
   181 000033AE 504F5354202F686F73- <1> msg_host_post_retire_prefix db 'POST /host {"action":"retire-session","session":"', 0
   181 000033B7 74207B22616374696F- <1>
   181 000033C0 6E223A227265746972- <1>
   181 000033C9 652D73657373696F6E- <1>
   181 000033D2 222C2273657373696F- <1>
   181 000033DB 6E223A2200          <1>
   182 000033E0 504F5354202F686F73- <1> msg_host_post_step_prefix db 'POST /host {"action":"step-session","session":"', 0
   182 000033E9 74207B22616374696F- <1>
   182 000033F2 6E223A22737465702D- <1>
   182 000033FB 73657373696F6E222C- <1>
   182 00003404 2273657373696F6E22- <1>
   182 0000340D 3A2200              <1>
   183 00003410 222C2270726F6D7074- <1> msg_host_post_step_mid db '","prompt":"', 0
   183 00003419 223A2200            <1>
   184 0000341D 504F5354202F686F73- <1> msg_host_post_curl_prefix db 'POST /host {"action":"fetch-url","url":"', 0
   184 00003426 74207B22616374696F- <1>
   184 0000342F 6E223A226665746368- <1>
   184 00003438 2D75726C222C227572- <1>
   184 00003441 6C223A2200          <1>
   185 00003446 504F5354202F686F73- <1> msg_host_post_git_sync db 'POST /host {"action":"git-sync"', 0
   185 0000344F 74207B22616374696F- <1>
   185 00003458 6E223A226769742D73- <1>
   185 00003461 796E632200          <1>
   186 00003466 504F5354202F686F73- <1> msg_host_post_clone_prefix db 'POST /host {"action":"clone-session","session":"', 0
   186 0000346F 74207B22616374696F- <1>
   186 00003478 6E223A22636C6F6E65- <1>
   186 00003481 2D73657373696F6E22- <1>
   186 0000348A 2C2273657373696F6E- <1>
   186 00003493 223A2200            <1>
   187 00003497 504F5354202F686F73- <1> msg_host_post_adopt_prefix db 'POST /host {"action":"adopt-style","session":"', 0
   187 000034A0 74207B22616374696F- <1>
   187 000034A9 6E223A2261646F7074- <1>
   187 000034B2 2D7374796C65222C22- <1>
   187 000034BB 73657373696F6E223A- <1>
   187 000034C4 2200                <1>
   188 000034C6 222C22736F75726365- <1> msg_host_post_clone_mid db '","source_session":"', 0
   188 000034CF 5F73657373696F6E22- <1>
   188 000034D8 3A2200              <1>
   189 000034DB 222C226D6F64696669- <1> msg_host_post_modifier_mid db '","modifier":"', 0
   189 000034E4 6572223A2200        <1>
   190 000034EA 2C2267656E65726174- <1> msg_generation_json_prefix db ',"generation":"0x', 0
   190 000034F3 696F6E223A22307800  <1>
   191 000034FC 2200                <1> msg_generation_json_suffix db '"', 0
   192 000034FE 2200                <1> msg_json_quote db '"', 0
   193 00003500 7D00                <1> msg_json_close db '}', 0
   194 00003502 656469746F723A2074- <1> msg_editor_intro db "editor: type into the scratch buffer, Backspace deletes, Esc returns to the monitor", 13, 10, 0
   194 0000350B 79706520696E746F20- <1>
   194 00003514 746865207363726174- <1>
   194 0000351D 636820627566666572- <1>
   194 00003526 2C204261636B737061- <1>
   194 0000352F 63652064656C657465- <1>
   194 00003538 732C20457363207265- <1>
   194 00003541 7475726E7320746F20- <1>
   194 0000354A 746865206D6F6E6974- <1>
   194 00003553 6F720D0A00          <1>
   195 00003558 6C656176696E672065- <1> msg_editor_exit db "leaving editor", 13, 10, 0
   195 00003561 6469746F720D0A00    <1>
   196 00003569 677265703A206E6176- <1> msg_grep_intro db "grep: navigator preset for the scratch editor buffer", 13, 10, 0
   196 00003572 696761746F72207072- <1>
   196 0000357B 6573657420666F7220- <1>
   196 00003584 746865207363726174- <1>
   196 0000358D 636820656469746F72- <1>
   196 00003596 206275666665720D0A- <1>
   196 0000359F 00                  <1>
   197 000035A0 677265703A20656469- <1> msg_grep_empty db "grep: editor buffer is empty", 13, 10, 0
   197 000035A9 746F72206275666665- <1>
   197 000035B2 7220697320656D7074- <1>
   197 000035BB 790D0A00            <1>
   198 000035BF 6E6176696761746F72- <1> msg_navigator_none db "navigator: run grep or peek first", 13, 10, 0
   198 000035C8 3A2072756E20677265- <1>
   198 000035D1 70206F72207065656B- <1>
   198 000035DA 2066697273740D0A00  <1>
   199 000035E3 7365617263683A2073- <1> msg_search_needed db "search: set a pattern first", 13, 10, 0
   199 000035EC 657420612070617474- <1>
   199 000035F5 65726E206669727374- <1>
   199 000035FE 0D0A00              <1>
   200 00003601 7365617263683A206E- <1> msg_search_none db "search: no matches", 13, 10, 0
   200 0000360A 6F206D617463686573- <1>
   200 00003613 0D0A00              <1>
   201 00003616 7365617263683A2070- <1> msg_search_long db "search: pattern too long", 13, 10, 0
   201 0000361F 61747465726E20746F- <1>
   201 00003628 6F206C6F6E670D0A00  <1>
   202 00003631 766965773A20736F75- <1> msg_view_empty db "view: source is empty", 13, 10, 0
   202 0000363A 72636520697320656D- <1>
   202 00003643 7074790D0A00        <1>
   203 00003649 766965772074657874- <1> msg_view_text_header db "view text 0x", 0
   203 00003652 20307800            <1>
   204 00003656 766965772068657820- <1> msg_view_hex_header db "view hex 0x", 0
   204 0000365F 307800              <1>
   205 00003662 6B65726E656C5F6F73- <1> prompt db "kernel_os> ", 0
   205 0000366B 3E2000              <1>
   206 0000366E 63616C633E2000      <1> prompt_calc db "calc> ", 0
   207 00003675 636861743E2000      <1> prompt_chat db "chat> ", 0
   208 0000367C 75726C3E2000        <1> prompt_curl db "url> ", 0
   209 00003682 686F73742061637469- <1> prompt_host_action db "host action> ", 0
   209 0000368B 6F6E3E2000          <1>
   210 00003690 73657373696F6E3E20- <1> prompt_task_session db "session> ", 0
   210 00003699 00                  <1>
   211 0000369A 676F616C3E2000      <1> prompt_task_goal db "goal> ", 0
   212 000036A1 736F75726365207365- <1> prompt_task_source db "source session> ", 0
   212 000036AA 7373696F6E3E2000    <1>
   213 000036B2 72616D6C6973743E20- <1> prompt_ramlist db 0x72, 0x61, 0x6D, 0x6C, 0x69, 0x73, 0x74, 0x3E, 0x20, 0x00
   213 000036BB 00                  <1>
   214 000036BC 73637265656E3E2000  <1> prompt_screen db "screen> ", 0
   215 000036C5 76616C75653E2000    <1> prompt_ramlist_value db "value> ", 0
   216 000036CD 70726F6D70743E2000  <1> prompt_host_prompt db "prompt> ", 0
   217 000036D6 6D6F6469666965723E- <1> prompt_host_modifier db "modifier> ", 0
   217 000036DF 2000                <1>
   218 000036E1 6E6565646C653E2000  <1> prompt_grep db "needle> ", 0
   219 000036EA 7061747465726E3E20- <1> prompt_search db "pattern> ", 0
   219 000036F3 00                  <1>
   220 000036F4 6F6666736574206865- <1> prompt_peek_offset db "offset hex> ", 0
   220 000036FD 783E2000            <1>
   221 00003701 636F756E7420686578- <1> prompt_peek_count db "count hex (1..C80)> ", 0
   221 0000370A 2028312E2E43383029- <1>
   221 00003713 3E2000              <1>
   222 00003716 0D0A00              <1> newline db 13, 10, 0
   223 00003719 68617264776172655F- <1> cmd_hardware_list db "hardware_list", 0
   223 00003722 6C69737400          <1>
   224 00003727 6D656D6F72795F6D61- <1> cmd_memory_map db "memory_map", 0
   224 00003730 7000                <1>
   225 00003732 63616C6300          <1> cmd_calc db "calc", 0
   226 00003737 6368617400          <1> cmd_chat db "chat", 0
   227 0000373C 6375726C00          <1> cmd_curl db "curl", 0
   228 00003741 686F737472657100    <1> cmd_hostreq db "hostreq", 0
   229 00003749 7461736B5F73706177- <1> cmd_task_spawn db "task_spawn", 0
   229 00003752 6E00                <1>
   230 00003754 7461736B5F6C697374- <1> cmd_task_list db "task_list", 0
   230 0000375D 00                  <1>
   231 0000375E 7461736B5F72657469- <1> cmd_task_retire db "task_retire", 0
   231 00003767 726500              <1>
   232 0000376A 7461736B5F73746570- <1> cmd_task_step db "task_step", 0
   232 00003773 00                  <1>
   233 00003774 72616D6C69737400    <1> cmd_ramlist db 0x72, 0x61, 0x6D, 0x6C, 0x69, 0x73, 0x74, 0x00
   234 0000377C 6564697400          <1> cmd_edit db "edit", 0
   235 00003781 6772657000          <1> cmd_grep db "grep", 0
   236 00003786 7065656B00          <1> cmd_peek db "peek", 0
   237 0000378B 73656172636800      <1> cmd_search db "search", 0
   238 00003792 6E65787400          <1> cmd_next db "next", 0
   239 00003797 7072657600          <1> cmd_prev db "prev", 0
   240 0000379C 666F727761726400    <1> cmd_forward db "forward", 0
   241 000037A4 6261636B00          <1> cmd_back db "back", 0
   242 000037A9 7669657700          <1> cmd_view db "view", 0
   243 000037AE 73637265656E00      <1> cmd_screen db "screen", 0
   244 000037B5 706D333200          <1> cmd_pm32 db "pm32", 0
   245 000037BA 68616C7400          <1> cmd_halt db "halt", 0
   246 000037BF 7265626F6F7400      <1> cmd_reboot db "reboot", 0
   247 000037C6 6578697400          <1> cmd_exit db "exit", 0
   248 000037CB 7075736800          <1> cmd_ramlist_push db "push", 0
   249 000037D0 706F7000            <1> cmd_ramlist_pop db "pop", 0
   250 000037D4 73686F7700          <1> cmd_ramlist_show db "show", 0
   251 000037D9 636C65617200        <1> cmd_ramlist_clear db "clear", 0
   252 000037DF 73746174757300      <1> cmd_screen_status db "status", 0
   253 000037E6 6F6E00              <1> cmd_screen_on db "on", 0
   254 000037E9 6F666600            <1> cmd_screen_off db "off", 0
   255 000037ED 636C65617200        <1> cmd_screen_clear db "clear", 0
   256 000037F3 2F6375726C2000      <1> curl_prefix db "/curl ", 0
   257 000037FA 2F6C6F6F7000        <1> loop_prefix db "/loop", 0
   258 00003800 2F70617463682000    <1> patch_prefix db "/patch ", 0
   259 00003808 2F73747265616D2000  <1> stream_prefix db "/stream ", 0
   260 00003811 2F7065656B70616765- <1> peek_page_prefix db "/peekpage ", 0
   260 0000381A 2000                <1>
   261 0000381C 2F7065656B2000      <1> peek_prefix db "/peek ", 0
   262 00003823 5359533A2073657373- <1> sys_retired_prefix db "SYS: session retired by /kill-self", 0
   262 0000382C 696F6E207265746972- <1>
   262 00003835 6564206279202F6B69- <1>
   262 0000383E 6C6C2D73656C6600    <1>
   263 00003846 6C6973742D73657373- <1> action_list_sessions db "list-sessions", 0
   263 0000384F 696F6E7300          <1>
   264 00003854 737061776E2D736573- <1> action_spawn_session db "spawn-session", 0
   264 0000385D 73696F6E00          <1>
   265 00003862 636C6F6E652D736573- <1> action_clone_session db "clone-session", 0
   265 0000386B 73696F6E00          <1>
   266 00003870 7265746972652D7365- <1> action_retire_session db "retire-session", 0
   266 00003879 7373696F6E00        <1>
   267 0000387F 737465702D73657373- <1> action_step_session db "step-session", 0
   267 00003888 696F6E00            <1>
   268 0000388C 61646F70742D737479- <1> action_adopt_style db "adopt-style", 0
   268 00003895 6C6500              <1>
   269 00003898 6769742D73796E6300  <1> action_git_sync db "git-sync", 0
     8                                  %include "boot/stage2/05_state_tables.asm"
     1 000038A1 01000000            <1> generation dd 1
     2 000038A5 00000000            <1> chat_session_counter dd 0
     3 000038A9 00                  <1> chat_session_active db 0
     4 000038AA 00<rep 10h>         <1> chat_session_buffer times CHAT_SESSION_SIZE db 0
     5 000038BA 00                  <1> chat_fresh_needed db 0
     6 000038BB 00                  <1> chat_loop_active db 0
     7 000038BC 00                  <1> chat_loop_steps db 0
     8 000038BD 00                  <1> chat_loop_resume db 0
     9 000038BE 0000                <1> patch_offset dw 0
    10 000038C0 0000                <1> patch_byte_count dw 0
    11 000038C2 00<rep 200h>        <1> patch_bytes times PATCH_MAX_BYTES db 0
    12 00003AC2 0000                <1> peek_offset dw 0
    13 00003AC4 0000                <1> peek_count dw 0
    14 00003AC6 00<rep 8h>          <1> peek_token_buffer times 8 db 0
    15 00003ACE 0000                <1> pm32_saved_sp dw 0
    16 00003AD0 00                  <1> pm32_status db 0
    17 00003AD1 00000000            <1> pm32_signature dd 0
    18 00003AD5 00000000            <1> pm32_observed_cr0 dd 0
    19 00003AD9 00000000            <1> pm32_observed_esp dd 0
    20 00003ADD 00000000            <1> kernel_safe_lowmem_top dd 0
    21 00003AE1 00                  <1> safe_range_count db 0
    22 00003AE2 00000000<rep 8h>    <1> safe_range_bases times SAFE_RANGE_MAX dd 0
    23 00003B02 00000000<rep 8h>    <1> safe_range_lengths times SAFE_RANGE_MAX dd 0
    24 00003B22 00<rep 1000h>       <1> input_buffer times INPUT_MAX + 1 db 0
    25 00004B22 00<rep 18h>         <1> host_action_buffer times HOST_ACTION_SIZE db 0
    26 00004B3A 00<rep 10h>         <1> task_session_buffer times TASK_NAME_SIZE db 0
    27 00004B4A 00<rep 10h>         <1> task_source_buffer times TASK_NAME_SIZE db 0
    28 00004B5A 00<rep A0h>         <1> task_goal_buffer times TASK_GOAL_SIZE db 0
    29 00004BFA 00<rep A0h>         <1> task_arg_buffer times TASK_GOAL_SIZE db 0
    30 00004C9A 00<rep 4h>          <1> task_active times TASK_SLOT_COUNT db 0
    31 00004C9E 00<rep 40h>         <1> task_names times TASK_SLOT_COUNT * TASK_NAME_SIZE db 0
    32 00004CDE 00<rep 280h>        <1> task_goals times TASK_SLOT_COUNT * TASK_GOAL_SIZE db 0
    33 00004F5E 00                  <1> ramlist_initialized db 0
    34 00004F5F FF                  <1> ramlist_head db 0xff
    35 00004F60 FF                  <1> ramlist_tail db 0xff
    36 00004F61 00                  <1> ramlist_free_head db 0
    37 00004F62 00                  <1> ramlist_count db 0
    38 00004F63 00<rep 10h>         <1> ramlist_next times RAMLIST_NODE_COUNT db 0
    39 00004F73 0000<rep 10h>       <1> ramlist_values times RAMLIST_NODE_COUNT dw 0
    40 00004F93 00                  <1> calc_op db 0
    41 00004F94 0000                <1> calc_left dw 0
    42 00004F96 0000                <1> calc_right dw 0
    43 00004F98 0000                <1> calc_result dw 0
    44 00004F9A 0000                <1> hardware_equipment_word dw 0
    45 00004F9C 00                  <1> hardware_video_mode db 0
    46 00004F9D 00                  <1> hardware_video_cols db 0
    47 00004F9E 00                  <1> hardware_video_rows db 0
    48 00004F9F 00                  <1> hardware_video_page db 0
    49 00004FA0 00                  <1> hardware_port_count db 0
    50 00004FA1 00                  <1> hardware_drive_count db 0
    51 00004FA2 00                  <1> hardware_drive_id db 0
    52 00004FA3 00                  <1> text_console_ready db 0
    53 00004FA4 00                  <1> monitor_auto_clear db 0
    54 00004FA5 00                  <1> kernel_runtime_state db 0
    55 00004FA6 00000000            <1> e820_continuation dd 0
    56 00004FAA 00<rep 14h>         <1> e820_buffer times 20 db 0
    57 00004FBE 0000                <1> editor_length dw 0
    58 00004FC0 00<rep 2800h>       <1> editor_buffer times EDITOR_CAPACITY db 0
    59 000077C0 00                  <1> navigator_source db 0
    60 000077C1 00                  <1> navigator_render_mode db 0
    61 000077C2 00                  <1> navigator_match_active db 0
    62 000077C3 0000                <1> navigator_cursor dw 0
    63 000077C5 0000                <1> navigator_window dw 0
    64 000077C7 0000                <1> navigator_match_offset dw 0
    65 000077C9 0000                <1> navigator_needle_length dw 0
    66 000077CB 00<rep 80h>         <1> navigator_needle times NAV_NEEDLE_MAX db 0
    67 0000784B 00<rep 200h>        <1> serial_line_buffer times SERIAL_LINE_MAX + 1 db 0
    68 00007A4B 00<rep 200h>        <1> host_request_buffer times SERIAL_LINE_MAX + 1 db 0
    69 00007C4B 303132333435363738- <1> hex_digits db "0123456789ABCDEF"
    69 00007C54 39414243444546      <1>
    70                              <1> keymap_unshifted:
    71 00007C5B 00<rep 2h>          <1>     times 0x02 db 0
    72 00007C5D 313233343536373839- <1>     db '1', '2', '3', '4', '5', '6', '7', '8', '9', '0', '-', '='
    72 00007C66 302D3D              <1>
    73 00007C69 08                  <1>     db 0x08
    74 00007C6A 09                  <1>     db 0x09
    75 00007C6B 71776572747975696F- <1>     db 'q', 'w', 'e', 'r', 't', 'y', 'u', 'i', 'o', 'p', '[', ']'
    75 00007C74 705B5D              <1>
    76 00007C77 0D                  <1>     db 0x0d
    77 00007C78 00                  <1>     db 0
    78 00007C79 6173646667686A6B6C- <1>     db 'a', 's', 'd', 'f', 'g', 'h', 'j', 'k', 'l', ';', 0x27, '`'
    78 00007C82 3B2760              <1>
    79 00007C85 00                  <1>     db 0
    80 00007C86 5C                  <1>     db 0x5c
    81 00007C87 7A786376626E6D2C2E- <1>     db 'z', 'x', 'c', 'v', 'b', 'n', 'm', ',', '.', '/'
    81 00007C90 2F                  <1>
    82 00007C91 00                  <1>     db 0
    83 00007C92 2A                  <1>     db '*'
    84 00007C93 00                  <1>     db 0
    85 00007C94 20                  <1>     db ' '
    86 00007C95 00<rep 46h>         <1>     times (128 - ($ - keymap_unshifted)) db 0
    87                              <1> 
    88                              <1> keymap_shifted:
    89 00007CDB 00<rep 2h>          <1>     times 0x02 db 0
    90 00007CDD 21402324255E262A28- <1>     db '!', '@', '#', '$', '%', '^', '&', '*', '(', ')', '_', '+'
    90 00007CE6 295F2B              <1>
    91 00007CE9 08                  <1>     db 0x08
    92 00007CEA 09                  <1>     db 0x09
    93 00007CEB 51574552545955494F- <1>     db 'Q', 'W', 'E', 'R', 'T', 'Y', 'U', 'I', 'O', 'P', '{', '}'
    93 00007CF4 507B7D              <1>
    94 00007CF7 0D                  <1>     db 0x0d
    95 00007CF8 00                  <1>     db 0
    96 00007CF9 4153444647484A4B4C- <1>     db 'A', 'S', 'D', 'F', 'G', 'H', 'J', 'K', 'L', ':', 0x22, '~'
    96 00007D02 3A227E              <1>
    97 00007D05 00                  <1>     db 0
    98 00007D06 7C                  <1>     db '|'
    99 00007D07 5A584356424E4D3C3E- <1>     db 'Z', 'X', 'C', 'V', 'B', 'N', 'M', '<', '>', '?'
    99 00007D10 3F                  <1>
   100 00007D11 00                  <1>     db 0
   101 00007D12 2A                  <1>     db '*'
   102 00007D13 00                  <1>     db 0
   103 00007D14 20                  <1>     db ' '
   104 00007D15 00<rep 46h>         <1>     times (128 - ($ - keymap_shifted)) db 0
   105                              <1> 
   106                              <1> stage2_image_end:
